	.file	"1.cpp"
	.text
	.section	.text._ZnwmPv,"axG",@progbits,_ZnwmPv,comdat
	.weak	_ZnwmPv
	.type	_ZnwmPv, @function
_ZnwmPv:
.LFB38:
	.cfi_startproc
	endbr64
	pushq	%rbp
	.cfi_def_cfa_offset 16
	.cfi_offset 6, -16
	movq	%rsp, %rbp
	.cfi_def_cfa_register 6
	movq	%rdi, -8(%rbp)
	movq	%rsi, -16(%rbp)
	movq	-16(%rbp), %rax
	popq	%rbp
	.cfi_def_cfa 7, 8
	ret
	.cfi_endproc
.LFE38:
	.size	_ZnwmPv, .-_ZnwmPv
	.section	.rodata
	.type	_ZStL19piecewise_construct, @object
	.size	_ZStL19piecewise_construct, 1
_ZStL19piecewise_construct:
	.zero	1
	.section	.text._ZN9__gnu_cxx5__ops16__iter_less_iterEv,"axG",@progbits,_ZN9__gnu_cxx5__ops16__iter_less_iterEv,comdat
	.weak	_ZN9__gnu_cxx5__ops16__iter_less_iterEv
	.type	_ZN9__gnu_cxx5__ops16__iter_less_iterEv, @function
_ZN9__gnu_cxx5__ops16__iter_less_iterEv:
.LFB261:
	.cfi_startproc
	endbr64
	pushq	%rbp
	.cfi_def_cfa_offset 16
	.cfi_offset 6, -16
	movq	%rsp, %rbp
	.cfi_def_cfa_register 6
	popq	%rbp
	.cfi_def_cfa 7, 8
	ret
	.cfi_endproc
.LFE261:
	.size	_ZN9__gnu_cxx5__ops16__iter_less_iterEv, .-_ZN9__gnu_cxx5__ops16__iter_less_iterEv
	.section	.text._ZN9__gnu_cxx5__ops14_Iter_less_valC2ENS0_15_Iter_less_iterE,"axG",@progbits,_ZN9__gnu_cxx5__ops14_Iter_less_valC5ENS0_15_Iter_less_iterE,comdat
	.align 2
	.weak	_ZN9__gnu_cxx5__ops14_Iter_less_valC2ENS0_15_Iter_less_iterE
	.type	_ZN9__gnu_cxx5__ops14_Iter_less_valC2ENS0_15_Iter_less_iterE, @function
_ZN9__gnu_cxx5__ops14_Iter_less_valC2ENS0_15_Iter_less_iterE:
.LFB263:
	.cfi_startproc
	endbr64
	pushq	%rbp
	.cfi_def_cfa_offset 16
	.cfi_offset 6, -16
	movq	%rsp, %rbp
	.cfi_def_cfa_register 6
	movq	%rdi, -8(%rbp)
	nop
	popq	%rbp
	.cfi_def_cfa 7, 8
	ret
	.cfi_endproc
.LFE263:
	.size	_ZN9__gnu_cxx5__ops14_Iter_less_valC2ENS0_15_Iter_less_iterE, .-_ZN9__gnu_cxx5__ops14_Iter_less_valC2ENS0_15_Iter_less_iterE
	.weak	_ZN9__gnu_cxx5__ops14_Iter_less_valC1ENS0_15_Iter_less_iterE
	.set	_ZN9__gnu_cxx5__ops14_Iter_less_valC1ENS0_15_Iter_less_iterE,_ZN9__gnu_cxx5__ops14_Iter_less_valC2ENS0_15_Iter_less_iterE
	.section	.text._ZN9__gnu_cxx5__ops15__val_comp_iterENS0_15_Iter_less_iterE,"axG",@progbits,_ZN9__gnu_cxx5__ops15__val_comp_iterENS0_15_Iter_less_iterE,comdat
	.weak	_ZN9__gnu_cxx5__ops15__val_comp_iterENS0_15_Iter_less_iterE
	.type	_ZN9__gnu_cxx5__ops15__val_comp_iterENS0_15_Iter_less_iterE, @function
_ZN9__gnu_cxx5__ops15__val_comp_iterENS0_15_Iter_less_iterE:
.LFB273:
	.cfi_startproc
	endbr64
	pushq	%rbp
	.cfi_def_cfa_offset 16
	.cfi_offset 6, -16
	movq	%rsp, %rbp
	.cfi_def_cfa_register 6
	popq	%rbp
	.cfi_def_cfa 7, 8
	ret
	.cfi_endproc
.LFE273:
	.size	_ZN9__gnu_cxx5__ops15__val_comp_iterENS0_15_Iter_less_iterE, .-_ZN9__gnu_cxx5__ops15__val_comp_iterENS0_15_Iter_less_iterE
	.section	.text._ZSt4__lgl,"axG",@progbits,_ZSt4__lgl,comdat
	.weak	_ZSt4__lgl
	.type	_ZSt4__lgl, @function
_ZSt4__lgl:
.LFB362:
	.cfi_startproc
	endbr64
	pushq	%rbp
	.cfi_def_cfa_offset 16
	.cfi_offset 6, -16
	movq	%rsp, %rbp
	.cfi_def_cfa_register 6
	movq	%rdi, -8(%rbp)
	movq	-8(%rbp), %rax
	bsrq	%rax, %rax
	xorq	$63, %rax
	movl	$63, %edx
	subl	%eax, %edx
	movl	%edx, %eax
	cltq
	popq	%rbp
	.cfi_def_cfa 7, 8
	ret
	.cfi_endproc
.LFE362:
	.size	_ZSt4__lgl, .-_ZSt4__lgl
	.local	_ZStL8__ioinit
	.comm	_ZStL8__ioinit,1,1
	.section	.text._ZNSt8__detail17_List_node_headerC2Ev,"axG",@progbits,_ZNSt8__detail17_List_node_headerC5Ev,comdat
	.align 2
	.weak	_ZNSt8__detail17_List_node_headerC2Ev
	.type	_ZNSt8__detail17_List_node_headerC2Ev, @function
_ZNSt8__detail17_List_node_headerC2Ev:
.LFB1540:
	.cfi_startproc
	endbr64
	pushq	%rbp
	.cfi_def_cfa_offset 16
	.cfi_offset 6, -16
	movq	%rsp, %rbp
	.cfi_def_cfa_register 6
	subq	$16, %rsp
	movq	%rdi, -8(%rbp)
	movq	-8(%rbp), %rax
	movq	%rax, %rdi
	call	_ZNSt8__detail17_List_node_header7_M_initEv
	nop
	leave
	.cfi_def_cfa 7, 8
	ret
	.cfi_endproc
.LFE1540:
	.size	_ZNSt8__detail17_List_node_headerC2Ev, .-_ZNSt8__detail17_List_node_headerC2Ev
	.weak	_ZNSt8__detail17_List_node_headerC1Ev
	.set	_ZNSt8__detail17_List_node_headerC1Ev,_ZNSt8__detail17_List_node_headerC2Ev
	.section	.text._ZNSt8__detail17_List_node_header7_M_initEv,"axG",@progbits,_ZNSt8__detail17_List_node_header7_M_initEv,comdat
	.align 2
	.weak	_ZNSt8__detail17_List_node_header7_M_initEv
	.type	_ZNSt8__detail17_List_node_header7_M_initEv, @function
_ZNSt8__detail17_List_node_header7_M_initEv:
.LFB1546:
	.cfi_startproc
	endbr64
	pushq	%rbp
	.cfi_def_cfa_offset 16
	.cfi_offset 6, -16
	movq	%rsp, %rbp
	.cfi_def_cfa_register 6
	movq	%rdi, -8(%rbp)
	movq	-8(%rbp), %rdx
	movq	-8(%rbp), %rax
	movq	%rdx, 8(%rax)
	movq	-8(%rbp), %rax
	movq	8(%rax), %rdx
	movq	-8(%rbp), %rax
	movq	%rdx, (%rax)
	movq	-8(%rbp), %rax
	movq	$0, 16(%rax)
	nop
	popq	%rbp
	.cfi_def_cfa 7, 8
	ret
	.cfi_endproc
.LFE1546:
	.size	_ZNSt8__detail17_List_node_header7_M_initEv, .-_ZNSt8__detail17_List_node_header7_M_initEv
	.globl	debug_option
	.bss
	.type	debug_option, @object
	.size	debug_option, 1
debug_option:
	.zero	1
	.section	.rodata
.LC0:
	.string	"long int CodeFile::RSHash()"
.LC1:
	.string	"1.cpp"
.LC2:
	.string	"hashwindow.size() == N_GRAM_K"
	.section	.text._ZN8CodeFile6RSHashEv,"axG",@progbits,_ZN8CodeFile6RSHashEv,comdat
	.align 2
	.weak	_ZN8CodeFile6RSHashEv
	.type	_ZN8CodeFile6RSHashEv, @function
_ZN8CodeFile6RSHashEv:
.LFB2509:
	.cfi_startproc
	endbr64
	pushq	%rbp
	.cfi_def_cfa_offset 16
	.cfi_offset 6, -16
	movq	%rsp, %rbp
	.cfi_def_cfa_register 6
	pushq	%rbx
	subq	$72, %rsp
	.cfi_offset 3, -24
	movq	%rdi, -72(%rbp)
	movq	%fs:40, %rax
	movq	%rax, -24(%rbp)
	xorl	%eax, %eax
	movq	$378551, -32(%rbp)
	movq	$63689, -48(%rbp)
	movq	$0, -40(%rbp)
	movq	-72(%rbp), %rax
	addq	$104, %rax
	movq	%rax, %rdi
	call	_ZNKSt7__cxx114listIcSaIcEE4sizeEv
	cmpq	$20, %rax
	je	.L13
	leaq	.LC0(%rip), %rcx
	movl	$25, %edx
	leaq	.LC1(%rip), %rsi
	leaq	.LC2(%rip), %rdi
	call	__assert_fail@PLT
.L13:
	leaq	-64(%rbp), %rax
	movq	%rax, %rdi
	call	_ZNSt14_List_iteratorIcEC1Ev
	movq	-72(%rbp), %rax
	addq	$104, %rax
	movq	%rax, %rdi
	call	_ZNSt7__cxx114listIcSaIcEE5beginEv
	movq	%rax, -64(%rbp)
.L15:
	movq	-72(%rbp), %rax
	addq	$104, %rax
	movq	%rax, %rdi
	call	_ZNSt7__cxx114listIcSaIcEE3endEv
	movq	%rax, -56(%rbp)
	leaq	-56(%rbp), %rdx
	leaq	-64(%rbp), %rax
	movq	%rdx, %rsi
	movq	%rax, %rdi
	call	_ZStneRKSt14_List_iteratorIcES2_
	testb	%al, %al
	je	.L14
	movq	-40(%rbp), %rax
	imulq	-48(%rbp), %rax
	movq	%rax, %rbx
	leaq	-64(%rbp), %rax
	movq	%rax, %rdi
	call	_ZNKSt14_List_iteratorIcEdeEv
	movzbl	(%rax), %eax
	movsbq	%al, %rax
	addq	%rbx, %rax
	movq	%rax, -40(%rbp)
	movq	-48(%rbp), %rax
	imulq	-32(%rbp), %rax
	movq	%rax, -48(%rbp)
	leaq	-64(%rbp), %rax
	movl	$0, %esi
	movq	%rax, %rdi
	call	_ZNSt14_List_iteratorIcEppEi
	jmp	.L15
.L14:
	movq	-40(%rbp), %rax
	movq	-24(%rbp), %rcx
	xorq	%fs:40, %rcx
	je	.L17
	call	__stack_chk_fail@PLT
.L17:
	addq	$72, %rsp
	popq	%rbx
	popq	%rbp
	.cfi_def_cfa 7, 8
	ret
	.cfi_endproc
.LFE2509:
	.size	_ZN8CodeFile6RSHashEv, .-_ZN8CodeFile6RSHashEv
	.section	.text._ZN8CodeFile4initEPc,"axG",@progbits,_ZN8CodeFile4initEPc,comdat
	.align 2
	.weak	_ZN8CodeFile4initEPc
	.type	_ZN8CodeFile4initEPc, @function
_ZN8CodeFile4initEPc:
.LFB2510:
	.cfi_startproc
	endbr64
	pushq	%rbp
	.cfi_def_cfa_offset 16
	.cfi_offset 6, -16
	movq	%rsp, %rbp
	.cfi_def_cfa_register 6
	subq	$16, %rsp
	movq	%rdi, -8(%rbp)
	movq	%rsi, -16(%rbp)
	movq	-8(%rbp), %rax
	movq	-16(%rbp), %rdx
	movq	%rdx, %rsi
	movq	%rax, %rdi
	call	strcpy@PLT
	nop
	leave
	.cfi_def_cfa 7, 8
	ret
	.cfi_endproc
.LFE2510:
	.size	_ZN8CodeFile4initEPc, .-_ZN8CodeFile4initEPc
	.section	.rodata
.LC3:
	.string	"r"
.LC4:
	.string	"\346\211\223\345\274\200%s\345\244\261\350\264\245\n"
	.align 8
.LC5:
	.string	"void CodeFile::CreateHashList()"
.LC6:
	.string	"false"
	.section	.text._ZN8CodeFile14CreateHashListEv,"axG",@progbits,_ZN8CodeFile14CreateHashListEv,comdat
	.align 2
	.weak	_ZN8CodeFile14CreateHashListEv
	.type	_ZN8CodeFile14CreateHashListEv, @function
_ZN8CodeFile14CreateHashListEv:
.LFB2511:
	.cfi_startproc
	endbr64
	pushq	%rbp
	.cfi_def_cfa_offset 16
	.cfi_offset 6, -16
	movq	%rsp, %rbp
	.cfi_def_cfa_register 6
	pushq	%rbx
	subq	$56, %rsp
	.cfi_offset 3, -24
	movq	%rdi, -56(%rbp)
	movq	%fs:40, %rax
	movq	%rax, -24(%rbp)
	xorl	%eax, %eax
	movq	-56(%rbp), %rax
	leaq	.LC3(%rip), %rsi
	movq	%rax, %rdi
	call	fopen@PLT
	movq	%rax, -32(%rbp)
	cmpq	$0, -32(%rbp)
	jne	.L20
	movq	-56(%rbp), %rax
	movq	%rax, %rsi
	leaq	.LC4(%rip), %rdi
	movl	$0, %eax
	call	printf@PLT
	leaq	.LC5(%rip), %rcx
	movl	$42, %edx
	leaq	.LC1(%rip), %rsi
	leaq	.LC6(%rip), %rdi
	call	__assert_fail@PLT
.L20:
	movq	-32(%rbp), %rax
	movq	%rax, %rdi
	call	fgetc@PLT
	movb	%al, -41(%rbp)
	movzbl	-41(%rbp), %eax
	cmpb	$-1, %al
	setne	%al
	testb	%al, %al
	je	.L25
	movq	-56(%rbp), %rax
	addq	$104, %rax
	movq	%rax, %rdi
	call	_ZNKSt7__cxx114listIcSaIcEE4sizeEv
	cmpq	$19, %rax
	setbe	%al
	testb	%al, %al
	je	.L22
	movq	-56(%rbp), %rax
	leaq	104(%rax), %rdx
	leaq	-41(%rbp), %rax
	movq	%rax, %rsi
	movq	%rdx, %rdi
	call	_ZNSt7__cxx114listIcSaIcEE9push_backERKc
	jmp	.L20
.L22:
	movq	-56(%rbp), %rax
	leaq	128(%rax), %rbx
	movq	-56(%rbp), %rax
	movq	%rax, %rdi
	call	_ZN8CodeFile6RSHashEv
	movq	%rax, -40(%rbp)
	leaq	-40(%rbp), %rax
	movq	%rax, %rsi
	movq	%rbx, %rdi
	call	_ZNSt6vectorIlSaIlEE9push_backEOl
	movq	-56(%rbp), %rax
	addq	$104, %rax
	movq	%rax, %rdi
	call	_ZNSt7__cxx114listIcSaIcEE9pop_frontEv
	movq	-56(%rbp), %rax
	leaq	104(%rax), %rdx
	leaq	-41(%rbp), %rax
	movq	%rax, %rsi
	movq	%rdx, %rdi
	call	_ZNSt7__cxx114listIcSaIcEE9push_backERKc
	jmp	.L20
.L25:
	nop
	movq	-24(%rbp), %rax
	xorq	%fs:40, %rax
	je	.L24
	call	__stack_chk_fail@PLT
.L24:
	addq	$56, %rsp
	popq	%rbx
	popq	%rbp
	.cfi_def_cfa 7, 8
	ret
	.cfi_endproc
.LFE2511:
	.size	_ZN8CodeFile14CreateHashListEv, .-_ZN8CodeFile14CreateHashListEv
	.section	.text._ZNSt7__cxx1110_List_baseIlSaIlEE10_List_implD2Ev,"axG",@progbits,_ZNSt7__cxx1110_List_baseIlSaIlEE10_List_implD5Ev,comdat
	.align 2
	.weak	_ZNSt7__cxx1110_List_baseIlSaIlEE10_List_implD2Ev
	.type	_ZNSt7__cxx1110_List_baseIlSaIlEE10_List_implD2Ev, @function
_ZNSt7__cxx1110_List_baseIlSaIlEE10_List_implD2Ev:
.LFB2516:
	.cfi_startproc
	endbr64
	pushq	%rbp
	.cfi_def_cfa_offset 16
	.cfi_offset 6, -16
	movq	%rsp, %rbp
	.cfi_def_cfa_register 6
	subq	$16, %rsp
	movq	%rdi, -8(%rbp)
	movq	-8(%rbp), %rax
	movq	%rax, %rdi
	call	_ZNSaISt10_List_nodeIlEED2Ev
	nop
	leave
	.cfi_def_cfa 7, 8
	ret
	.cfi_endproc
.LFE2516:
	.size	_ZNSt7__cxx1110_List_baseIlSaIlEE10_List_implD2Ev, .-_ZNSt7__cxx1110_List_baseIlSaIlEE10_List_implD2Ev
	.weak	_ZNSt7__cxx1110_List_baseIlSaIlEE10_List_implD1Ev
	.set	_ZNSt7__cxx1110_List_baseIlSaIlEE10_List_implD1Ev,_ZNSt7__cxx1110_List_baseIlSaIlEE10_List_implD2Ev
	.section	.text._ZNSt7__cxx1110_List_baseIlSaIlEEC2Ev,"axG",@progbits,_ZNSt7__cxx1110_List_baseIlSaIlEEC5Ev,comdat
	.align 2
	.weak	_ZNSt7__cxx1110_List_baseIlSaIlEEC2Ev
	.type	_ZNSt7__cxx1110_List_baseIlSaIlEEC2Ev, @function
_ZNSt7__cxx1110_List_baseIlSaIlEEC2Ev:
.LFB2518:
	.cfi_startproc
	endbr64
	pushq	%rbp
	.cfi_def_cfa_offset 16
	.cfi_offset 6, -16
	movq	%rsp, %rbp
	.cfi_def_cfa_register 6
	subq	$16, %rsp
	movq	%rdi, -8(%rbp)
	movq	-8(%rbp), %rax
	movq	%rax, %rdi
	call	_ZNSt7__cxx1110_List_baseIlSaIlEE10_List_implC1Ev
	nop
	leave
	.cfi_def_cfa 7, 8
	ret
	.cfi_endproc
.LFE2518:
	.size	_ZNSt7__cxx1110_List_baseIlSaIlEEC2Ev, .-_ZNSt7__cxx1110_List_baseIlSaIlEEC2Ev
	.weak	_ZNSt7__cxx1110_List_baseIlSaIlEEC1Ev
	.set	_ZNSt7__cxx1110_List_baseIlSaIlEEC1Ev,_ZNSt7__cxx1110_List_baseIlSaIlEEC2Ev
	.section	.text._ZNSt7__cxx114listIlSaIlEEC2Ev,"axG",@progbits,_ZNSt7__cxx114listIlSaIlEEC5Ev,comdat
	.align 2
	.weak	_ZNSt7__cxx114listIlSaIlEEC2Ev
	.type	_ZNSt7__cxx114listIlSaIlEEC2Ev, @function
_ZNSt7__cxx114listIlSaIlEEC2Ev:
.LFB2520:
	.cfi_startproc
	endbr64
	pushq	%rbp
	.cfi_def_cfa_offset 16
	.cfi_offset 6, -16
	movq	%rsp, %rbp
	.cfi_def_cfa_register 6
	subq	$16, %rsp
	movq	%rdi, -8(%rbp)
	movq	-8(%rbp), %rax
	movq	%rax, %rdi
	call	_ZNSt7__cxx1110_List_baseIlSaIlEEC2Ev
	nop
	leave
	.cfi_def_cfa 7, 8
	ret
	.cfi_endproc
.LFE2520:
	.size	_ZNSt7__cxx114listIlSaIlEEC2Ev, .-_ZNSt7__cxx114listIlSaIlEEC2Ev
	.weak	_ZNSt7__cxx114listIlSaIlEEC1Ev
	.set	_ZNSt7__cxx114listIlSaIlEEC1Ev,_ZNSt7__cxx114listIlSaIlEEC2Ev
	.section	.text._ZNSt7__cxx114listIlSaIlEED2Ev,"axG",@progbits,_ZNSt7__cxx114listIlSaIlEED5Ev,comdat
	.align 2
	.weak	_ZNSt7__cxx114listIlSaIlEED2Ev
	.type	_ZNSt7__cxx114listIlSaIlEED2Ev, @function
_ZNSt7__cxx114listIlSaIlEED2Ev:
.LFB2523:
	.cfi_startproc
	endbr64
	pushq	%rbp
	.cfi_def_cfa_offset 16
	.cfi_offset 6, -16
	movq	%rsp, %rbp
	.cfi_def_cfa_register 6
	subq	$16, %rsp
	movq	%rdi, -8(%rbp)
	movq	-8(%rbp), %rax
	movq	%rax, %rdi
	call	_ZNSt7__cxx1110_List_baseIlSaIlEED2Ev
	nop
	leave
	.cfi_def_cfa 7, 8
	ret
	.cfi_endproc
.LFE2523:
	.size	_ZNSt7__cxx114listIlSaIlEED2Ev, .-_ZNSt7__cxx114listIlSaIlEED2Ev
	.weak	_ZNSt7__cxx114listIlSaIlEED1Ev
	.set	_ZNSt7__cxx114listIlSaIlEED1Ev,_ZNSt7__cxx114listIlSaIlEED2Ev
	.section	.text._ZN8CodeFile9WinnowingEv,"axG",@progbits,_ZN8CodeFile9WinnowingEv,comdat
	.align 2
	.weak	_ZN8CodeFile9WinnowingEv
	.type	_ZN8CodeFile9WinnowingEv, @function
_ZN8CodeFile9WinnowingEv:
.LFB2512:
	.cfi_startproc
	.cfi_personality 0x9b,DW.ref.__gxx_personality_v0
	.cfi_lsda 0x1b,.LLSDA2512
	endbr64
	pushq	%rbp
	.cfi_def_cfa_offset 16
	.cfi_offset 6, -16
	movq	%rsp, %rbp
	.cfi_def_cfa_register 6
	pushq	%rbx
	subq	$104, %rsp
	.cfi_offset 3, -24
	movq	%rdi, -104(%rbp)
	movq	%fs:40, %rax
	movq	%rax, -24(%rbp)
	xorl	%eax, %eax
	leaq	-48(%rbp), %rax
	movq	%rax, %rdi
	call	_ZNSt7__cxx114listIlSaIlEEC1Ev
	movq	$0, -88(%rbp)
	movabsq	$9223372036854775807, %rax
	movq	%rax, -56(%rbp)
	movq	-104(%rbp), %rax
	subq	$-128, %rax
	movq	%rax, %rdi
	call	_ZNSt6vectorIlSaIlEE5beginEv
	movq	%rax, -88(%rbp)
.L38:
	movq	-104(%rbp), %rax
	subq	$-128, %rax
	movq	%rax, %rdi
	call	_ZNSt6vectorIlSaIlEE3endEv
	movq	%rax, -64(%rbp)
	leaq	-64(%rbp), %rdx
	leaq	-88(%rbp), %rax
	movq	%rdx, %rsi
	movq	%rax, %rdi
	call	_ZN9__gnu_cxxneIPlSt6vectorIlSaIlEEEEbRKNS_17__normal_iteratorIT_T0_EESA_
	testb	%al, %al
	je	.L31
	leaq	-48(%rbp), %rax
	movq	%rax, %rdi
	call	_ZNKSt7__cxx114listIlSaIlEE4sizeEv
	cmpq	$9, %rax
	setbe	%al
	testb	%al, %al
	je	.L32
	leaq	-88(%rbp), %rax
	movq	%rax, %rdi
	call	_ZNK9__gnu_cxx17__normal_iteratorIPlSt6vectorIlSaIlEEEdeEv
	movq	%rax, %rdx
	leaq	-48(%rbp), %rax
	movq	%rdx, %rsi
	movq	%rax, %rdi
.LEHB0:
	call	_ZNSt7__cxx114listIlSaIlEE9push_backERKl
	jmp	.L33
.L32:
	leaq	-80(%rbp), %rax
	movq	%rax, %rdi
	call	_ZNSt14_List_iteratorIlEC1Ev
	movabsq	$9223372036854775807, %rax
	movq	%rax, -72(%rbp)
	leaq	-48(%rbp), %rax
	movq	%rax, %rdi
	call	_ZNSt7__cxx114listIlSaIlEE5beginEv
	movq	%rax, -80(%rbp)
.L36:
	leaq	-48(%rbp), %rax
	movq	%rax, %rdi
	call	_ZNSt7__cxx114listIlSaIlEE3endEv
	movq	%rax, -64(%rbp)
	leaq	-64(%rbp), %rdx
	leaq	-80(%rbp), %rax
	movq	%rdx, %rsi
	movq	%rax, %rdi
	call	_ZStneRKSt14_List_iteratorIlES2_
	testb	%al, %al
	je	.L34
	leaq	-80(%rbp), %rax
	movq	%rax, %rdi
	call	_ZNKSt14_List_iteratorIlEdeEv
	movq	(%rax), %rdx
	movq	-72(%rbp), %rax
	cmpq	%rax, %rdx
	setl	%al
	testb	%al, %al
	je	.L35
	leaq	-80(%rbp), %rax
	movq	%rax, %rdi
	call	_ZNKSt14_List_iteratorIlEdeEv
	movq	(%rax), %rax
	movq	%rax, -72(%rbp)
.L35:
	leaq	-80(%rbp), %rax
	movl	$0, %esi
	movq	%rax, %rdi
	call	_ZNSt14_List_iteratorIlEppEi
	jmp	.L36
.L34:
	movq	-72(%rbp), %rax
	cmpq	%rax, -56(%rbp)
	je	.L37
	movq	-72(%rbp), %rax
	movq	%rax, -56(%rbp)
	movq	-104(%rbp), %rax
	leaq	152(%rax), %rdx
	leaq	-72(%rbp), %rax
	movq	%rax, %rsi
	movq	%rdx, %rdi
	call	_ZNSt6vectorIlSaIlEE9push_backERKl
.L37:
	leaq	-48(%rbp), %rax
	movq	%rax, %rdi
	call	_ZNSt7__cxx114listIlSaIlEE9pop_frontEv
	leaq	-88(%rbp), %rax
	movq	%rax, %rdi
	call	_ZNK9__gnu_cxx17__normal_iteratorIPlSt6vectorIlSaIlEEEdeEv
	movq	%rax, %rdx
	leaq	-48(%rbp), %rax
	movq	%rdx, %rsi
	movq	%rax, %rdi
	call	_ZNSt7__cxx114listIlSaIlEE9push_backERKl
.LEHE0:
.L33:
	leaq	-88(%rbp), %rax
	movl	$0, %esi
	movq	%rax, %rdi
	call	_ZN9__gnu_cxx17__normal_iteratorIPlSt6vectorIlSaIlEEEppEi
	jmp	.L38
.L31:
	leaq	-48(%rbp), %rax
	movq	%rax, %rdi
	call	_ZNSt7__cxx114listIlSaIlEED1Ev
	nop
	movq	-24(%rbp), %rax
	xorq	%fs:40, %rax
	je	.L40
	jmp	.L42
.L41:
	endbr64
	movq	%rax, %rbx
	leaq	-48(%rbp), %rax
	movq	%rax, %rdi
	call	_ZNSt7__cxx114listIlSaIlEED1Ev
	movq	%rbx, %rax
	movq	%rax, %rdi
.LEHB1:
	call	_Unwind_Resume@PLT
.LEHE1:
.L42:
	call	__stack_chk_fail@PLT
.L40:
	addq	$104, %rsp
	popq	%rbx
	popq	%rbp
	.cfi_def_cfa 7, 8
	ret
	.cfi_endproc
.LFE2512:
	.globl	__gxx_personality_v0
	.section	.gcc_except_table._ZN8CodeFile9WinnowingEv,"aG",@progbits,_ZN8CodeFile9WinnowingEv,comdat
.LLSDA2512:
	.byte	0xff
	.byte	0xff
	.byte	0x1
	.uleb128 .LLSDACSE2512-.LLSDACSB2512
.LLSDACSB2512:
	.uleb128 .LEHB0-.LFB2512
	.uleb128 .LEHE0-.LEHB0
	.uleb128 .L41-.LFB2512
	.uleb128 0
	.uleb128 .LEHB1-.LFB2512
	.uleb128 .LEHE1-.LEHB1
	.uleb128 0
	.uleb128 0
.LLSDACSE2512:
	.section	.text._ZN8CodeFile9WinnowingEv,"axG",@progbits,_ZN8CodeFile9WinnowingEv,comdat
	.size	_ZN8CodeFile9WinnowingEv, .-_ZN8CodeFile9WinnowingEv
	.section	.text._ZNSt7__cxx1110_List_baseIcSaIcEE10_List_implD2Ev,"axG",@progbits,_ZNSt7__cxx1110_List_baseIcSaIcEE10_List_implD5Ev,comdat
	.align 2
	.weak	_ZNSt7__cxx1110_List_baseIcSaIcEE10_List_implD2Ev
	.type	_ZNSt7__cxx1110_List_baseIcSaIcEE10_List_implD2Ev, @function
_ZNSt7__cxx1110_List_baseIcSaIcEE10_List_implD2Ev:
.LFB2533:
	.cfi_startproc
	endbr64
	pushq	%rbp
	.cfi_def_cfa_offset 16
	.cfi_offset 6, -16
	movq	%rsp, %rbp
	.cfi_def_cfa_register 6
	subq	$16, %rsp
	movq	%rdi, -8(%rbp)
	movq	-8(%rbp), %rax
	movq	%rax, %rdi
	call	_ZNSaISt10_List_nodeIcEED2Ev
	nop
	leave
	.cfi_def_cfa 7, 8
	ret
	.cfi_endproc
.LFE2533:
	.size	_ZNSt7__cxx1110_List_baseIcSaIcEE10_List_implD2Ev, .-_ZNSt7__cxx1110_List_baseIcSaIcEE10_List_implD2Ev
	.weak	_ZNSt7__cxx1110_List_baseIcSaIcEE10_List_implD1Ev
	.set	_ZNSt7__cxx1110_List_baseIcSaIcEE10_List_implD1Ev,_ZNSt7__cxx1110_List_baseIcSaIcEE10_List_implD2Ev
	.section	.text._ZNSt7__cxx1110_List_baseIcSaIcEEC2Ev,"axG",@progbits,_ZNSt7__cxx1110_List_baseIcSaIcEEC5Ev,comdat
	.align 2
	.weak	_ZNSt7__cxx1110_List_baseIcSaIcEEC2Ev
	.type	_ZNSt7__cxx1110_List_baseIcSaIcEEC2Ev, @function
_ZNSt7__cxx1110_List_baseIcSaIcEEC2Ev:
.LFB2535:
	.cfi_startproc
	endbr64
	pushq	%rbp
	.cfi_def_cfa_offset 16
	.cfi_offset 6, -16
	movq	%rsp, %rbp
	.cfi_def_cfa_register 6
	subq	$16, %rsp
	movq	%rdi, -8(%rbp)
	movq	-8(%rbp), %rax
	movq	%rax, %rdi
	call	_ZNSt7__cxx1110_List_baseIcSaIcEE10_List_implC1Ev
	nop
	leave
	.cfi_def_cfa 7, 8
	ret
	.cfi_endproc
.LFE2535:
	.size	_ZNSt7__cxx1110_List_baseIcSaIcEEC2Ev, .-_ZNSt7__cxx1110_List_baseIcSaIcEEC2Ev
	.weak	_ZNSt7__cxx1110_List_baseIcSaIcEEC1Ev
	.set	_ZNSt7__cxx1110_List_baseIcSaIcEEC1Ev,_ZNSt7__cxx1110_List_baseIcSaIcEEC2Ev
	.section	.text._ZNSt7__cxx114listIcSaIcEEC2Ev,"axG",@progbits,_ZNSt7__cxx114listIcSaIcEEC5Ev,comdat
	.align 2
	.weak	_ZNSt7__cxx114listIcSaIcEEC2Ev
	.type	_ZNSt7__cxx114listIcSaIcEEC2Ev, @function
_ZNSt7__cxx114listIcSaIcEEC2Ev:
.LFB2537:
	.cfi_startproc
	endbr64
	pushq	%rbp
	.cfi_def_cfa_offset 16
	.cfi_offset 6, -16
	movq	%rsp, %rbp
	.cfi_def_cfa_register 6
	subq	$16, %rsp
	movq	%rdi, -8(%rbp)
	movq	-8(%rbp), %rax
	movq	%rax, %rdi
	call	_ZNSt7__cxx1110_List_baseIcSaIcEEC2Ev
	nop
	leave
	.cfi_def_cfa 7, 8
	ret
	.cfi_endproc
.LFE2537:
	.size	_ZNSt7__cxx114listIcSaIcEEC2Ev, .-_ZNSt7__cxx114listIcSaIcEEC2Ev
	.weak	_ZNSt7__cxx114listIcSaIcEEC1Ev
	.set	_ZNSt7__cxx114listIcSaIcEEC1Ev,_ZNSt7__cxx114listIcSaIcEEC2Ev
	.section	.text._ZNSt7__cxx114listIcSaIcEED2Ev,"axG",@progbits,_ZNSt7__cxx114listIcSaIcEED5Ev,comdat
	.align 2
	.weak	_ZNSt7__cxx114listIcSaIcEED2Ev
	.type	_ZNSt7__cxx114listIcSaIcEED2Ev, @function
_ZNSt7__cxx114listIcSaIcEED2Ev:
.LFB2540:
	.cfi_startproc
	endbr64
	pushq	%rbp
	.cfi_def_cfa_offset 16
	.cfi_offset 6, -16
	movq	%rsp, %rbp
	.cfi_def_cfa_register 6
	subq	$16, %rsp
	movq	%rdi, -8(%rbp)
	movq	-8(%rbp), %rax
	movq	%rax, %rdi
	call	_ZNSt7__cxx1110_List_baseIcSaIcEED2Ev
	nop
	leave
	.cfi_def_cfa 7, 8
	ret
	.cfi_endproc
.LFE2540:
	.size	_ZNSt7__cxx114listIcSaIcEED2Ev, .-_ZNSt7__cxx114listIcSaIcEED2Ev
	.weak	_ZNSt7__cxx114listIcSaIcEED1Ev
	.set	_ZNSt7__cxx114listIcSaIcEED1Ev,_ZNSt7__cxx114listIcSaIcEED2Ev
	.section	.text._ZNSt12_Vector_baseIlSaIlEE12_Vector_implD2Ev,"axG",@progbits,_ZNSt12_Vector_baseIlSaIlEE12_Vector_implD5Ev,comdat
	.align 2
	.weak	_ZNSt12_Vector_baseIlSaIlEE12_Vector_implD2Ev
	.type	_ZNSt12_Vector_baseIlSaIlEE12_Vector_implD2Ev, @function
_ZNSt12_Vector_baseIlSaIlEE12_Vector_implD2Ev:
.LFB2545:
	.cfi_startproc
	endbr64
	pushq	%rbp
	.cfi_def_cfa_offset 16
	.cfi_offset 6, -16
	movq	%rsp, %rbp
	.cfi_def_cfa_register 6
	subq	$16, %rsp
	movq	%rdi, -8(%rbp)
	movq	-8(%rbp), %rax
	movq	%rax, %rdi
	call	_ZNSaIlED2Ev
	nop
	leave
	.cfi_def_cfa 7, 8
	ret
	.cfi_endproc
.LFE2545:
	.size	_ZNSt12_Vector_baseIlSaIlEE12_Vector_implD2Ev, .-_ZNSt12_Vector_baseIlSaIlEE12_Vector_implD2Ev
	.weak	_ZNSt12_Vector_baseIlSaIlEE12_Vector_implD1Ev
	.set	_ZNSt12_Vector_baseIlSaIlEE12_Vector_implD1Ev,_ZNSt12_Vector_baseIlSaIlEE12_Vector_implD2Ev
	.section	.text._ZNSt12_Vector_baseIlSaIlEEC2Ev,"axG",@progbits,_ZNSt12_Vector_baseIlSaIlEEC5Ev,comdat
	.align 2
	.weak	_ZNSt12_Vector_baseIlSaIlEEC2Ev
	.type	_ZNSt12_Vector_baseIlSaIlEEC2Ev, @function
_ZNSt12_Vector_baseIlSaIlEEC2Ev:
.LFB2547:
	.cfi_startproc
	endbr64
	pushq	%rbp
	.cfi_def_cfa_offset 16
	.cfi_offset 6, -16
	movq	%rsp, %rbp
	.cfi_def_cfa_register 6
	subq	$16, %rsp
	movq	%rdi, -8(%rbp)
	movq	-8(%rbp), %rax
	movq	%rax, %rdi
	call	_ZNSt12_Vector_baseIlSaIlEE12_Vector_implC1Ev
	nop
	leave
	.cfi_def_cfa 7, 8
	ret
	.cfi_endproc
.LFE2547:
	.size	_ZNSt12_Vector_baseIlSaIlEEC2Ev, .-_ZNSt12_Vector_baseIlSaIlEEC2Ev
	.weak	_ZNSt12_Vector_baseIlSaIlEEC1Ev
	.set	_ZNSt12_Vector_baseIlSaIlEEC1Ev,_ZNSt12_Vector_baseIlSaIlEEC2Ev
	.section	.text._ZNSt6vectorIlSaIlEEC2Ev,"axG",@progbits,_ZNSt6vectorIlSaIlEEC5Ev,comdat
	.align 2
	.weak	_ZNSt6vectorIlSaIlEEC2Ev
	.type	_ZNSt6vectorIlSaIlEEC2Ev, @function
_ZNSt6vectorIlSaIlEEC2Ev:
.LFB2549:
	.cfi_startproc
	endbr64
	pushq	%rbp
	.cfi_def_cfa_offset 16
	.cfi_offset 6, -16
	movq	%rsp, %rbp
	.cfi_def_cfa_register 6
	subq	$16, %rsp
	movq	%rdi, -8(%rbp)
	movq	-8(%rbp), %rax
	movq	%rax, %rdi
	call	_ZNSt12_Vector_baseIlSaIlEEC2Ev
	nop
	leave
	.cfi_def_cfa 7, 8
	ret
	.cfi_endproc
.LFE2549:
	.size	_ZNSt6vectorIlSaIlEEC2Ev, .-_ZNSt6vectorIlSaIlEEC2Ev
	.weak	_ZNSt6vectorIlSaIlEEC1Ev
	.set	_ZNSt6vectorIlSaIlEEC1Ev,_ZNSt6vectorIlSaIlEEC2Ev
	.section	.text._ZN8CodeFileC2Ev,"axG",@progbits,_ZN8CodeFileC5Ev,comdat
	.align 2
	.weak	_ZN8CodeFileC2Ev
	.type	_ZN8CodeFileC2Ev, @function
_ZN8CodeFileC2Ev:
.LFB2551:
	.cfi_startproc
	endbr64
	pushq	%rbp
	.cfi_def_cfa_offset 16
	.cfi_offset 6, -16
	movq	%rsp, %rbp
	.cfi_def_cfa_register 6
	subq	$16, %rsp
	movq	%rdi, -8(%rbp)
	movq	-8(%rbp), %rax
	addq	$104, %rax
	movq	%rax, %rdi
	call	_ZNSt7__cxx114listIcSaIcEEC1Ev
	movq	-8(%rbp), %rax
	subq	$-128, %rax
	movq	%rax, %rdi
	call	_ZNSt6vectorIlSaIlEEC1Ev
	movq	-8(%rbp), %rax
	addq	$152, %rax
	movq	%rax, %rdi
	call	_ZNSt6vectorIlSaIlEEC1Ev
	nop
	leave
	.cfi_def_cfa 7, 8
	ret
	.cfi_endproc
.LFE2551:
	.size	_ZN8CodeFileC2Ev, .-_ZN8CodeFileC2Ev
	.weak	_ZN8CodeFileC1Ev
	.set	_ZN8CodeFileC1Ev,_ZN8CodeFileC2Ev
	.section	.text._ZN8CodeFileD2Ev,"axG",@progbits,_ZN8CodeFileD5Ev,comdat
	.align 2
	.weak	_ZN8CodeFileD2Ev
	.type	_ZN8CodeFileD2Ev, @function
_ZN8CodeFileD2Ev:
.LFB2554:
	.cfi_startproc
	endbr64
	pushq	%rbp
	.cfi_def_cfa_offset 16
	.cfi_offset 6, -16
	movq	%rsp, %rbp
	.cfi_def_cfa_register 6
	subq	$16, %rsp
	movq	%rdi, -8(%rbp)
	movq	-8(%rbp), %rax
	addq	$152, %rax
	movq	%rax, %rdi
	call	_ZNSt6vectorIlSaIlEED1Ev
	movq	-8(%rbp), %rax
	subq	$-128, %rax
	movq	%rax, %rdi
	call	_ZNSt6vectorIlSaIlEED1Ev
	movq	-8(%rbp), %rax
	addq	$104, %rax
	movq	%rax, %rdi
	call	_ZNSt7__cxx114listIcSaIcEED1Ev
	nop
	leave
	.cfi_def_cfa 7, 8
	ret
	.cfi_endproc
.LFE2554:
	.size	_ZN8CodeFileD2Ev, .-_ZN8CodeFileD2Ev
	.weak	_ZN8CodeFileD1Ev
	.set	_ZN8CodeFileD1Ev,_ZN8CodeFileD2Ev
	.section	.rodata
.LC7:
	.string	"int main(int, char**)"
.LC8:
	.string	"-v"
.LC9:
	.string	"--verbose"
.LC11:
	.string	"%0.1f\n"
	.text
	.globl	main
	.type	main, @function
main:
.LFB2528:
	.cfi_startproc
	.cfi_personality 0x9b,DW.ref.__gxx_personality_v0
	.cfi_lsda 0x1b,.LLSDA2528
	endbr64
	pushq	%rbp
	.cfi_def_cfa_offset 16
	.cfi_offset 6, -16
	movq	%rsp, %rbp
	.cfi_def_cfa_register 6
	pushq	%rbx
	subq	$440, %rsp
	.cfi_offset 3, -24
	movl	%edi, -420(%rbp)
	movq	%rsi, -432(%rbp)
	movq	%fs:40, %rax
	movq	%rax, -24(%rbp)
	xorl	%eax, %eax
	cmpl	$2, -420(%rbp)
	jle	.L53
	cmpl	$4, -420(%rbp)
	jle	.L54
.L53:
	leaq	.LC7(%rip), %rcx
	movl	$85, %edx
	leaq	.LC1(%rip), %rsi
	leaq	.LC6(%rip), %rdi
	call	__assert_fail@PLT
.L54:
	cmpl	$4, -420(%rbp)
	jne	.L55
	movq	-432(%rbp), %rax
	addq	$24, %rax
	movq	(%rax), %rax
	leaq	.LC8(%rip), %rsi
	movq	%rax, %rdi
	call	strcmp@PLT
	testl	%eax, %eax
	je	.L56
	movq	-432(%rbp), %rax
	addq	$24, %rax
	movq	(%rax), %rax
	leaq	.LC9(%rip), %rsi
	movq	%rax, %rdi
	call	strcmp@PLT
	testl	%eax, %eax
	jne	.L57
.L56:
	movb	$1, debug_option(%rip)
	jmp	.L55
.L57:
	leaq	.LC7(%rip), %rcx
	movl	$92, %edx
	leaq	.LC1(%rip), %rsi
	leaq	.LC6(%rip), %rdi
	call	__assert_fail@PLT
.L55:
	leaq	-384(%rbp), %rax
	movq	%rax, %rdi
	call	_ZN8CodeFileC1Ev
	leaq	-208(%rbp), %rax
	movq	%rax, %rdi
	call	_ZN8CodeFileC1Ev
	movq	-432(%rbp), %rax
	addq	$8, %rax
	movq	(%rax), %rdx
	leaq	-384(%rbp), %rax
	movq	%rdx, %rsi
	movq	%rax, %rdi
	call	_ZN8CodeFile4initEPc
	movq	-432(%rbp), %rax
	addq	$16, %rax
	movq	(%rax), %rdx
	leaq	-208(%rbp), %rax
	movq	%rdx, %rsi
	movq	%rax, %rdi
	call	_ZN8CodeFile4initEPc
	leaq	-384(%rbp), %rax
	movq	%rax, %rdi
.LEHB2:
	call	_ZN8CodeFile14CreateHashListEv
	leaq	-208(%rbp), %rax
	movq	%rax, %rdi
	call	_ZN8CodeFile14CreateHashListEv
	leaq	-384(%rbp), %rax
	movq	%rax, %rdi
	call	_ZN8CodeFile9WinnowingEv
	leaq	-208(%rbp), %rax
	movq	%rax, %rdi
	call	_ZN8CodeFile9WinnowingEv
	leaq	-384(%rbp), %rax
	addq	$152, %rax
	movq	%rax, %rdi
	call	_ZNSt6vectorIlSaIlEE3endEv
	movq	%rax, %rbx
	leaq	-384(%rbp), %rax
	addq	$152, %rax
	movq	%rax, %rdi
	call	_ZNSt6vectorIlSaIlEE5beginEv
	movq	%rbx, %rsi
	movq	%rax, %rdi
	call	_ZSt4sortIN9__gnu_cxx17__normal_iteratorIPlSt6vectorIlSaIlEEEEEvT_S7_
	leaq	-208(%rbp), %rax
	addq	$152, %rax
	movq	%rax, %rdi
	call	_ZNSt6vectorIlSaIlEE3endEv
	movq	%rax, %rbx
	leaq	-208(%rbp), %rax
	addq	$152, %rax
	movq	%rax, %rdi
	call	_ZNSt6vectorIlSaIlEE5beginEv
	movq	%rbx, %rsi
	movq	%rax, %rdi
	call	_ZSt4sortIN9__gnu_cxx17__normal_iteratorIPlSt6vectorIlSaIlEEEEEvT_S7_
	movl	$0, -404(%rbp)
	movl	$0, -400(%rbp)
	movl	$0, -396(%rbp)
.L64:
	movl	-404(%rbp), %eax
	movslq	%eax, %rbx
	leaq	-384(%rbp), %rax
	addq	$152, %rax
	movq	%rax, %rdi
	call	_ZNKSt6vectorIlSaIlEE4sizeEv
	cmpq	%rax, %rbx
	jnb	.L58
	movl	-400(%rbp), %eax
	movslq	%eax, %rbx
	leaq	-208(%rbp), %rax
	addq	$152, %rax
	movq	%rax, %rdi
	call	_ZNKSt6vectorIlSaIlEE4sizeEv
	cmpq	%rax, %rbx
	jnb	.L58
	movl	$1, %eax
	jmp	.L59
.L58:
	movl	$0, %eax
.L59:
	testb	%al, %al
	je	.L60
	movl	-404(%rbp), %eax
	cltq
	leaq	-384(%rbp), %rdx
	addq	$152, %rdx
	movq	%rax, %rsi
	movq	%rdx, %rdi
	call	_ZNSt6vectorIlSaIlEEixEm
	movq	(%rax), %rbx
	movl	-400(%rbp), %eax
	cltq
	leaq	-208(%rbp), %rdx
	addq	$152, %rdx
	movq	%rax, %rsi
	movq	%rdx, %rdi
	call	_ZNSt6vectorIlSaIlEEixEm
	movq	(%rax), %rax
	cmpq	%rax, %rbx
	sete	%al
	testb	%al, %al
	je	.L61
	addl	$1, -404(%rbp)
	addl	$1, -400(%rbp)
	addl	$1, -396(%rbp)
	jmp	.L64
.L61:
	movl	-404(%rbp), %eax
	cltq
	leaq	-384(%rbp), %rdx
	addq	$152, %rdx
	movq	%rax, %rsi
	movq	%rdx, %rdi
	call	_ZNSt6vectorIlSaIlEEixEm
	movq	(%rax), %rbx
	movl	-400(%rbp), %eax
	cltq
	leaq	-208(%rbp), %rdx
	addq	$152, %rdx
	movq	%rax, %rsi
	movq	%rdx, %rdi
	call	_ZNSt6vectorIlSaIlEEixEm
	movq	(%rax), %rax
	cmpq	%rax, %rbx
	setg	%al
	testb	%al, %al
	je	.L63
	addl	$1, -400(%rbp)
	jmp	.L64
.L63:
	movl	-404(%rbp), %eax
	cltq
	leaq	-384(%rbp), %rdx
	addq	$152, %rdx
	movq	%rax, %rsi
	movq	%rdx, %rdi
	call	_ZNSt6vectorIlSaIlEEixEm
	movq	(%rax), %rbx
	movl	-400(%rbp), %eax
	cltq
	leaq	-208(%rbp), %rdx
	addq	$152, %rdx
	movq	%rax, %rsi
	movq	%rdx, %rdi
	call	_ZNSt6vectorIlSaIlEEixEm
	movq	(%rax), %rax
	cmpq	%rax, %rbx
	setl	%al
	testb	%al, %al
	je	.L64
	addl	$1, -404(%rbp)
	jmp	.L64
.L60:
	cvtsi2sdl	-396(%rbp), %xmm3
	movsd	%xmm3, -440(%rbp)
	leaq	-384(%rbp), %rax
	addq	$152, %rax
	movq	%rax, %rdi
	call	_ZNKSt6vectorIlSaIlEE4sizeEv
	movq	%rax, %rbx
	leaq	-208(%rbp), %rax
	addq	$152, %rax
	movq	%rax, %rdi
	call	_ZNKSt6vectorIlSaIlEE4sizeEv
	leaq	(%rbx,%rax), %rdx
	movl	-396(%rbp), %eax
	cltq
	subq	%rax, %rdx
	movq	%rdx, %rax
	testq	%rax, %rax
	js	.L65
	cvtsi2sdq	%rax, %xmm0
	jmp	.L66
.L65:
	movq	%rax, %rdx
	shrq	%rdx
	andl	$1, %eax
	orq	%rax, %rdx
	cvtsi2sdq	%rdx, %xmm0
	addsd	%xmm0, %xmm0
.L66:
	movsd	-440(%rbp), %xmm2
	divsd	%xmm0, %xmm2
	movapd	%xmm2, %xmm0
	movsd	%xmm0, -392(%rbp)
	movsd	-392(%rbp), %xmm1
	movsd	.LC10(%rip), %xmm0
	mulsd	%xmm1, %xmm0
	leaq	.LC11(%rip), %rdi
	movl	$1, %eax
	call	printf@PLT
.LEHE2:
	movl	$0, %ebx
	leaq	-208(%rbp), %rax
	movq	%rax, %rdi
	call	_ZN8CodeFileD1Ev
	leaq	-384(%rbp), %rax
	movq	%rax, %rdi
	call	_ZN8CodeFileD1Ev
	movl	%ebx, %eax
	movq	-24(%rbp), %rcx
	xorq	%fs:40, %rcx
	je	.L69
	jmp	.L71
.L70:
	endbr64
	movq	%rax, %rbx
	leaq	-208(%rbp), %rax
	movq	%rax, %rdi
	call	_ZN8CodeFileD1Ev
	leaq	-384(%rbp), %rax
	movq	%rax, %rdi
	call	_ZN8CodeFileD1Ev
	movq	%rbx, %rax
	movq	%rax, %rdi
.LEHB3:
	call	_Unwind_Resume@PLT
.LEHE3:
.L71:
	call	__stack_chk_fail@PLT
.L69:
	addq	$440, %rsp
	popq	%rbx
	popq	%rbp
	.cfi_def_cfa 7, 8
	ret
	.cfi_endproc
.LFE2528:
	.section	.gcc_except_table,"a",@progbits
.LLSDA2528:
	.byte	0xff
	.byte	0xff
	.byte	0x1
	.uleb128 .LLSDACSE2528-.LLSDACSB2528
.LLSDACSB2528:
	.uleb128 .LEHB2-.LFB2528
	.uleb128 .LEHE2-.LEHB2
	.uleb128 .L70-.LFB2528
	.uleb128 0
	.uleb128 .LEHB3-.LFB2528
	.uleb128 .LEHE3-.LEHB3
	.uleb128 0
	.uleb128 0
.LLSDACSE2528:
	.text
	.size	main, .-main
	.section	.text._ZNKSt7__cxx114listIcSaIcEE4sizeEv,"axG",@progbits,_ZNKSt7__cxx114listIcSaIcEE4sizeEv,comdat
	.align 2
	.weak	_ZNKSt7__cxx114listIcSaIcEE4sizeEv
	.type	_ZNKSt7__cxx114listIcSaIcEE4sizeEv, @function
_ZNKSt7__cxx114listIcSaIcEE4sizeEv:
.LFB2792:
	.cfi_startproc
	.cfi_personality 0x9b,DW.ref.__gxx_personality_v0
	.cfi_lsda 0x1b,.LLSDA2792
	endbr64
	pushq	%rbp
	.cfi_def_cfa_offset 16
	.cfi_offset 6, -16
	movq	%rsp, %rbp
	.cfi_def_cfa_register 6
	subq	$16, %rsp
	movq	%rdi, -8(%rbp)
	movq	-8(%rbp), %rax
	movq	%rax, %rdi
	call	_ZNKSt7__cxx114listIcSaIcEE13_M_node_countEv
	leave
	.cfi_def_cfa 7, 8
	ret
	.cfi_endproc
.LFE2792:
	.section	.gcc_except_table
.LLSDA2792:
	.byte	0xff
	.byte	0xff
	.byte	0x1
	.uleb128 .LLSDACSE2792-.LLSDACSB2792
.LLSDACSB2792:
.LLSDACSE2792:
	.section	.text._ZNKSt7__cxx114listIcSaIcEE4sizeEv,"axG",@progbits,_ZNKSt7__cxx114listIcSaIcEE4sizeEv,comdat
	.size	_ZNKSt7__cxx114listIcSaIcEE4sizeEv, .-_ZNKSt7__cxx114listIcSaIcEE4sizeEv
	.section	.text._ZNSt14_List_iteratorIcEC2Ev,"axG",@progbits,_ZNSt14_List_iteratorIcEC5Ev,comdat
	.align 2
	.weak	_ZNSt14_List_iteratorIcEC2Ev
	.type	_ZNSt14_List_iteratorIcEC2Ev, @function
_ZNSt14_List_iteratorIcEC2Ev:
.LFB2794:
	.cfi_startproc
	endbr64
	pushq	%rbp
	.cfi_def_cfa_offset 16
	.cfi_offset 6, -16
	movq	%rsp, %rbp
	.cfi_def_cfa_register 6
	movq	%rdi, -8(%rbp)
	movq	-8(%rbp), %rax
	movq	$0, (%rax)
	nop
	popq	%rbp
	.cfi_def_cfa 7, 8
	ret
	.cfi_endproc
.LFE2794:
	.size	_ZNSt14_List_iteratorIcEC2Ev, .-_ZNSt14_List_iteratorIcEC2Ev
	.weak	_ZNSt14_List_iteratorIcEC1Ev
	.set	_ZNSt14_List_iteratorIcEC1Ev,_ZNSt14_List_iteratorIcEC2Ev
	.section	.text._ZNSt7__cxx114listIcSaIcEE5beginEv,"axG",@progbits,_ZNSt7__cxx114listIcSaIcEE5beginEv,comdat
	.align 2
	.weak	_ZNSt7__cxx114listIcSaIcEE5beginEv
	.type	_ZNSt7__cxx114listIcSaIcEE5beginEv, @function
_ZNSt7__cxx114listIcSaIcEE5beginEv:
.LFB2796:
	.cfi_startproc
	endbr64
	pushq	%rbp
	.cfi_def_cfa_offset 16
	.cfi_offset 6, -16
	movq	%rsp, %rbp
	.cfi_def_cfa_register 6
	subq	$32, %rsp
	movq	%rdi, -24(%rbp)
	movq	%fs:40, %rax
	movq	%rax, -8(%rbp)
	xorl	%eax, %eax
	movq	-24(%rbp), %rax
	movq	(%rax), %rdx
	leaq	-16(%rbp), %rax
	movq	%rdx, %rsi
	movq	%rax, %rdi
	call	_ZNSt14_List_iteratorIcEC1EPNSt8__detail15_List_node_baseE
	movq	-16(%rbp), %rax
	movq	-8(%rbp), %rcx
	xorq	%fs:40, %rcx
	je	.L77
	call	__stack_chk_fail@PLT
.L77:
	leave
	.cfi_def_cfa 7, 8
	ret
	.cfi_endproc
.LFE2796:
	.size	_ZNSt7__cxx114listIcSaIcEE5beginEv, .-_ZNSt7__cxx114listIcSaIcEE5beginEv
	.section	.text._ZNSt7__cxx114listIcSaIcEE3endEv,"axG",@progbits,_ZNSt7__cxx114listIcSaIcEE3endEv,comdat
	.align 2
	.weak	_ZNSt7__cxx114listIcSaIcEE3endEv
	.type	_ZNSt7__cxx114listIcSaIcEE3endEv, @function
_ZNSt7__cxx114listIcSaIcEE3endEv:
.LFB2797:
	.cfi_startproc
	endbr64
	pushq	%rbp
	.cfi_def_cfa_offset 16
	.cfi_offset 6, -16
	movq	%rsp, %rbp
	.cfi_def_cfa_register 6
	subq	$32, %rsp
	movq	%rdi, -24(%rbp)
	movq	%fs:40, %rax
	movq	%rax, -8(%rbp)
	xorl	%eax, %eax
	movq	-24(%rbp), %rdx
	leaq	-16(%rbp), %rax
	movq	%rdx, %rsi
	movq	%rax, %rdi
	call	_ZNSt14_List_iteratorIcEC1EPNSt8__detail15_List_node_baseE
	movq	-16(%rbp), %rax
	movq	-8(%rbp), %rcx
	xorq	%fs:40, %rcx
	je	.L80
	call	__stack_chk_fail@PLT
.L80:
	leave
	.cfi_def_cfa 7, 8
	ret
	.cfi_endproc
.LFE2797:
	.size	_ZNSt7__cxx114listIcSaIcEE3endEv, .-_ZNSt7__cxx114listIcSaIcEE3endEv
	.section	.text._ZStneRKSt14_List_iteratorIcES2_,"axG",@progbits,_ZStneRKSt14_List_iteratorIcES2_,comdat
	.weak	_ZStneRKSt14_List_iteratorIcES2_
	.type	_ZStneRKSt14_List_iteratorIcES2_, @function
_ZStneRKSt14_List_iteratorIcES2_:
.LFB2798:
	.cfi_startproc
	endbr64
	pushq	%rbp
	.cfi_def_cfa_offset 16
	.cfi_offset 6, -16
	movq	%rsp, %rbp
	.cfi_def_cfa_register 6
	movq	%rdi, -8(%rbp)
	movq	%rsi, -16(%rbp)
	movq	-8(%rbp), %rax
	movq	(%rax), %rdx
	movq	-16(%rbp), %rax
	movq	(%rax), %rax
	cmpq	%rax, %rdx
	setne	%al
	popq	%rbp
	.cfi_def_cfa 7, 8
	ret
	.cfi_endproc
.LFE2798:
	.size	_ZStneRKSt14_List_iteratorIcES2_, .-_ZStneRKSt14_List_iteratorIcES2_
	.section	.text._ZNSt14_List_iteratorIcEppEi,"axG",@progbits,_ZNSt14_List_iteratorIcEppEi,comdat
	.align 2
	.weak	_ZNSt14_List_iteratorIcEppEi
	.type	_ZNSt14_List_iteratorIcEppEi, @function
_ZNSt14_List_iteratorIcEppEi:
.LFB2799:
	.cfi_startproc
	endbr64
	pushq	%rbp
	.cfi_def_cfa_offset 16
	.cfi_offset 6, -16
	movq	%rsp, %rbp
	.cfi_def_cfa_register 6
	subq	$32, %rsp
	movq	%rdi, -24(%rbp)
	movl	%esi, -28(%rbp)
	movq	%fs:40, %rax
	movq	%rax, -8(%rbp)
	xorl	%eax, %eax
	movq	-24(%rbp), %rax
	movq	(%rax), %rax
	movq	%rax, -16(%rbp)
	movq	-24(%rbp), %rax
	movq	(%rax), %rax
	movq	(%rax), %rdx
	movq	-24(%rbp), %rax
	movq	%rdx, (%rax)
	movq	-16(%rbp), %rax
	movq	-8(%rbp), %rcx
	xorq	%fs:40, %rcx
	je	.L85
	call	__stack_chk_fail@PLT
.L85:
	leave
	.cfi_def_cfa 7, 8
	ret
	.cfi_endproc
.LFE2799:
	.size	_ZNSt14_List_iteratorIcEppEi, .-_ZNSt14_List_iteratorIcEppEi
	.section	.text._ZNKSt14_List_iteratorIcEdeEv,"axG",@progbits,_ZNKSt14_List_iteratorIcEdeEv,comdat
	.align 2
	.weak	_ZNKSt14_List_iteratorIcEdeEv
	.type	_ZNKSt14_List_iteratorIcEdeEv, @function
_ZNKSt14_List_iteratorIcEdeEv:
.LFB2800:
	.cfi_startproc
	endbr64
	pushq	%rbp
	.cfi_def_cfa_offset 16
	.cfi_offset 6, -16
	movq	%rsp, %rbp
	.cfi_def_cfa_register 6
	subq	$16, %rsp
	movq	%rdi, -8(%rbp)
	movq	-8(%rbp), %rax
	movq	(%rax), %rax
	movq	%rax, %rdi
	call	_ZNSt10_List_nodeIcE9_M_valptrEv
	leave
	.cfi_def_cfa 7, 8
	ret
	.cfi_endproc
.LFE2800:
	.size	_ZNKSt14_List_iteratorIcEdeEv, .-_ZNKSt14_List_iteratorIcEdeEv
	.section	.text._ZNSt7__cxx114listIcSaIcEE9push_backERKc,"axG",@progbits,_ZNSt7__cxx114listIcSaIcEE9push_backERKc,comdat
	.align 2
	.weak	_ZNSt7__cxx114listIcSaIcEE9push_backERKc
	.type	_ZNSt7__cxx114listIcSaIcEE9push_backERKc, @function
_ZNSt7__cxx114listIcSaIcEE9push_backERKc:
.LFB2801:
	.cfi_startproc
	endbr64
	pushq	%rbp
	.cfi_def_cfa_offset 16
	.cfi_offset 6, -16
	movq	%rsp, %rbp
	.cfi_def_cfa_register 6
	subq	$16, %rsp
	movq	%rdi, -8(%rbp)
	movq	%rsi, -16(%rbp)
	movq	-8(%rbp), %rax
	movq	%rax, %rdi
	call	_ZNSt7__cxx114listIcSaIcEE3endEv
	movq	%rax, %rcx
	movq	-16(%rbp), %rdx
	movq	-8(%rbp), %rax
	movq	%rcx, %rsi
	movq	%rax, %rdi
	call	_ZNSt7__cxx114listIcSaIcEE9_M_insertIJRKcEEEvSt14_List_iteratorIcEDpOT_
	nop
	leave
	.cfi_def_cfa 7, 8
	ret
	.cfi_endproc
.LFE2801:
	.size	_ZNSt7__cxx114listIcSaIcEE9push_backERKc, .-_ZNSt7__cxx114listIcSaIcEE9push_backERKc
	.section	.text._ZNSt6vectorIlSaIlEE9push_backEOl,"axG",@progbits,_ZNSt6vectorIlSaIlEE9push_backEOl,comdat
	.align 2
	.weak	_ZNSt6vectorIlSaIlEE9push_backEOl
	.type	_ZNSt6vectorIlSaIlEE9push_backEOl, @function
_ZNSt6vectorIlSaIlEE9push_backEOl:
.LFB2802:
	.cfi_startproc
	endbr64
	pushq	%rbp
	.cfi_def_cfa_offset 16
	.cfi_offset 6, -16
	movq	%rsp, %rbp
	.cfi_def_cfa_register 6
	subq	$16, %rsp
	movq	%rdi, -8(%rbp)
	movq	%rsi, -16(%rbp)
	movq	-16(%rbp), %rax
	movq	%rax, %rdi
	call	_ZSt4moveIRlEONSt16remove_referenceIT_E4typeEOS2_
	movq	%rax, %rdx
	movq	-8(%rbp), %rax
	movq	%rdx, %rsi
	movq	%rax, %rdi
	call	_ZNSt6vectorIlSaIlEE12emplace_backIJlEEEvDpOT_
	nop
	leave
	.cfi_def_cfa 7, 8
	ret
	.cfi_endproc
.LFE2802:
	.size	_ZNSt6vectorIlSaIlEE9push_backEOl, .-_ZNSt6vectorIlSaIlEE9push_backEOl
	.section	.text._ZNSt7__cxx114listIcSaIcEE9pop_frontEv,"axG",@progbits,_ZNSt7__cxx114listIcSaIcEE9pop_frontEv,comdat
	.align 2
	.weak	_ZNSt7__cxx114listIcSaIcEE9pop_frontEv
	.type	_ZNSt7__cxx114listIcSaIcEE9pop_frontEv, @function
_ZNSt7__cxx114listIcSaIcEE9pop_frontEv:
.LFB2803:
	.cfi_startproc
	endbr64
	pushq	%rbp
	.cfi_def_cfa_offset 16
	.cfi_offset 6, -16
	movq	%rsp, %rbp
	.cfi_def_cfa_register 6
	subq	$16, %rsp
	movq	%rdi, -8(%rbp)
	movq	-8(%rbp), %rax
	movq	%rax, %rdi
	call	_ZNSt7__cxx114listIcSaIcEE5beginEv
	movq	%rax, %rdx
	movq	-8(%rbp), %rax
	movq	%rdx, %rsi
	movq	%rax, %rdi
	call	_ZNSt7__cxx114listIcSaIcEE8_M_eraseESt14_List_iteratorIcE
	nop
	leave
	.cfi_def_cfa 7, 8
	ret
	.cfi_endproc
.LFE2803:
	.size	_ZNSt7__cxx114listIcSaIcEE9pop_frontEv, .-_ZNSt7__cxx114listIcSaIcEE9pop_frontEv
	.section	.text._ZNSt7__cxx1110_List_baseIlSaIlEE10_List_implC2Ev,"axG",@progbits,_ZNSt7__cxx1110_List_baseIlSaIlEE10_List_implC5Ev,comdat
	.align 2
	.weak	_ZNSt7__cxx1110_List_baseIlSaIlEE10_List_implC2Ev
	.type	_ZNSt7__cxx1110_List_baseIlSaIlEE10_List_implC2Ev, @function
_ZNSt7__cxx1110_List_baseIlSaIlEE10_List_implC2Ev:
.LFB2805:
	.cfi_startproc
	endbr64
	pushq	%rbp
	.cfi_def_cfa_offset 16
	.cfi_offset 6, -16
	movq	%rsp, %rbp
	.cfi_def_cfa_register 6
	subq	$16, %rsp
	movq	%rdi, -8(%rbp)
	movq	-8(%rbp), %rax
	movq	%rax, %rdi
	call	_ZNSaISt10_List_nodeIlEEC2Ev
	movq	-8(%rbp), %rax
	movq	%rax, %rdi
	call	_ZNSt8__detail17_List_node_headerC1Ev
	nop
	leave
	.cfi_def_cfa 7, 8
	ret
	.cfi_endproc
.LFE2805:
	.size	_ZNSt7__cxx1110_List_baseIlSaIlEE10_List_implC2Ev, .-_ZNSt7__cxx1110_List_baseIlSaIlEE10_List_implC2Ev
	.weak	_ZNSt7__cxx1110_List_baseIlSaIlEE10_List_implC1Ev
	.set	_ZNSt7__cxx1110_List_baseIlSaIlEE10_List_implC1Ev,_ZNSt7__cxx1110_List_baseIlSaIlEE10_List_implC2Ev
	.section	.text._ZNSaISt10_List_nodeIlEED2Ev,"axG",@progbits,_ZNSaISt10_List_nodeIlEED5Ev,comdat
	.align 2
	.weak	_ZNSaISt10_List_nodeIlEED2Ev
	.type	_ZNSaISt10_List_nodeIlEED2Ev, @function
_ZNSaISt10_List_nodeIlEED2Ev:
.LFB2808:
	.cfi_startproc
	endbr64
	pushq	%rbp
	.cfi_def_cfa_offset 16
	.cfi_offset 6, -16
	movq	%rsp, %rbp
	.cfi_def_cfa_register 6
	subq	$16, %rsp
	movq	%rdi, -8(%rbp)
	movq	-8(%rbp), %rax
	movq	%rax, %rdi
	call	_ZN9__gnu_cxx13new_allocatorISt10_List_nodeIlEED2Ev
	nop
	leave
	.cfi_def_cfa 7, 8
	ret
	.cfi_endproc
.LFE2808:
	.size	_ZNSaISt10_List_nodeIlEED2Ev, .-_ZNSaISt10_List_nodeIlEED2Ev
	.weak	_ZNSaISt10_List_nodeIlEED1Ev
	.set	_ZNSaISt10_List_nodeIlEED1Ev,_ZNSaISt10_List_nodeIlEED2Ev
	.section	.text._ZNSt7__cxx1110_List_baseIlSaIlEED2Ev,"axG",@progbits,_ZNSt7__cxx1110_List_baseIlSaIlEED5Ev,comdat
	.align 2
	.weak	_ZNSt7__cxx1110_List_baseIlSaIlEED2Ev
	.type	_ZNSt7__cxx1110_List_baseIlSaIlEED2Ev, @function
_ZNSt7__cxx1110_List_baseIlSaIlEED2Ev:
.LFB2811:
	.cfi_startproc
	endbr64
	pushq	%rbp
	.cfi_def_cfa_offset 16
	.cfi_offset 6, -16
	movq	%rsp, %rbp
	.cfi_def_cfa_register 6
	subq	$16, %rsp
	movq	%rdi, -8(%rbp)
	movq	-8(%rbp), %rax
	movq	%rax, %rdi
	call	_ZNSt7__cxx1110_List_baseIlSaIlEE8_M_clearEv
	movq	-8(%rbp), %rax
	movq	%rax, %rdi
	call	_ZNSt7__cxx1110_List_baseIlSaIlEE10_List_implD1Ev
	nop
	leave
	.cfi_def_cfa 7, 8
	ret
	.cfi_endproc
.LFE2811:
	.size	_ZNSt7__cxx1110_List_baseIlSaIlEED2Ev, .-_ZNSt7__cxx1110_List_baseIlSaIlEED2Ev
	.weak	_ZNSt7__cxx1110_List_baseIlSaIlEED1Ev
	.set	_ZNSt7__cxx1110_List_baseIlSaIlEED1Ev,_ZNSt7__cxx1110_List_baseIlSaIlEED2Ev
	.section	.text._ZNSt6vectorIlSaIlEE5beginEv,"axG",@progbits,_ZNSt6vectorIlSaIlEE5beginEv,comdat
	.align 2
	.weak	_ZNSt6vectorIlSaIlEE5beginEv
	.type	_ZNSt6vectorIlSaIlEE5beginEv, @function
_ZNSt6vectorIlSaIlEE5beginEv:
.LFB2813:
	.cfi_startproc
	endbr64
	pushq	%rbp
	.cfi_def_cfa_offset 16
	.cfi_offset 6, -16
	movq	%rsp, %rbp
	.cfi_def_cfa_register 6
	subq	$32, %rsp
	movq	%rdi, -24(%rbp)
	movq	%fs:40, %rax
	movq	%rax, -8(%rbp)
	xorl	%eax, %eax
	movq	-24(%rbp), %rdx
	leaq	-16(%rbp), %rax
	movq	%rdx, %rsi
	movq	%rax, %rdi
	call	_ZN9__gnu_cxx17__normal_iteratorIPlSt6vectorIlSaIlEEEC1ERKS1_
	movq	-16(%rbp), %rax
	movq	-8(%rbp), %rcx
	xorq	%fs:40, %rcx
	je	.L96
	call	__stack_chk_fail@PLT
.L96:
	leave
	.cfi_def_cfa 7, 8
	ret
	.cfi_endproc
.LFE2813:
	.size	_ZNSt6vectorIlSaIlEE5beginEv, .-_ZNSt6vectorIlSaIlEE5beginEv
	.section	.text._ZNSt6vectorIlSaIlEE3endEv,"axG",@progbits,_ZNSt6vectorIlSaIlEE3endEv,comdat
	.align 2
	.weak	_ZNSt6vectorIlSaIlEE3endEv
	.type	_ZNSt6vectorIlSaIlEE3endEv, @function
_ZNSt6vectorIlSaIlEE3endEv:
.LFB2814:
	.cfi_startproc
	endbr64
	pushq	%rbp
	.cfi_def_cfa_offset 16
	.cfi_offset 6, -16
	movq	%rsp, %rbp
	.cfi_def_cfa_register 6
	subq	$32, %rsp
	movq	%rdi, -24(%rbp)
	movq	%fs:40, %rax
	movq	%rax, -8(%rbp)
	xorl	%eax, %eax
	movq	-24(%rbp), %rax
	leaq	8(%rax), %rdx
	leaq	-16(%rbp), %rax
	movq	%rdx, %rsi
	movq	%rax, %rdi
	call	_ZN9__gnu_cxx17__normal_iteratorIPlSt6vectorIlSaIlEEEC1ERKS1_
	movq	-16(%rbp), %rax
	movq	-8(%rbp), %rcx
	xorq	%fs:40, %rcx
	je	.L99
	call	__stack_chk_fail@PLT
.L99:
	leave
	.cfi_def_cfa 7, 8
	ret
	.cfi_endproc
.LFE2814:
	.size	_ZNSt6vectorIlSaIlEE3endEv, .-_ZNSt6vectorIlSaIlEE3endEv
	.section	.text._ZN9__gnu_cxxneIPlSt6vectorIlSaIlEEEEbRKNS_17__normal_iteratorIT_T0_EESA_,"axG",@progbits,_ZN9__gnu_cxxneIPlSt6vectorIlSaIlEEEEbRKNS_17__normal_iteratorIT_T0_EESA_,comdat
	.weak	_ZN9__gnu_cxxneIPlSt6vectorIlSaIlEEEEbRKNS_17__normal_iteratorIT_T0_EESA_
	.type	_ZN9__gnu_cxxneIPlSt6vectorIlSaIlEEEEbRKNS_17__normal_iteratorIT_T0_EESA_, @function
_ZN9__gnu_cxxneIPlSt6vectorIlSaIlEEEEbRKNS_17__normal_iteratorIT_T0_EESA_:
.LFB2815:
	.cfi_startproc
	endbr64
	pushq	%rbp
	.cfi_def_cfa_offset 16
	.cfi_offset 6, -16
	movq	%rsp, %rbp
	.cfi_def_cfa_register 6
	pushq	%rbx
	subq	$24, %rsp
	.cfi_offset 3, -24
	movq	%rdi, -24(%rbp)
	movq	%rsi, -32(%rbp)
	movq	-24(%rbp), %rax
	movq	%rax, %rdi
	call	_ZNK9__gnu_cxx17__normal_iteratorIPlSt6vectorIlSaIlEEE4baseEv
	movq	(%rax), %rbx
	movq	-32(%rbp), %rax
	movq	%rax, %rdi
	call	_ZNK9__gnu_cxx17__normal_iteratorIPlSt6vectorIlSaIlEEE4baseEv
	movq	(%rax), %rax
	cmpq	%rax, %rbx
	setne	%al
	addq	$24, %rsp
	popq	%rbx
	popq	%rbp
	.cfi_def_cfa 7, 8
	ret
	.cfi_endproc
.LFE2815:
	.size	_ZN9__gnu_cxxneIPlSt6vectorIlSaIlEEEEbRKNS_17__normal_iteratorIT_T0_EESA_, .-_ZN9__gnu_cxxneIPlSt6vectorIlSaIlEEEEbRKNS_17__normal_iteratorIT_T0_EESA_
	.section	.text._ZN9__gnu_cxx17__normal_iteratorIPlSt6vectorIlSaIlEEEppEi,"axG",@progbits,_ZN9__gnu_cxx17__normal_iteratorIPlSt6vectorIlSaIlEEEppEi,comdat
	.align 2
	.weak	_ZN9__gnu_cxx17__normal_iteratorIPlSt6vectorIlSaIlEEEppEi
	.type	_ZN9__gnu_cxx17__normal_iteratorIPlSt6vectorIlSaIlEEEppEi, @function
_ZN9__gnu_cxx17__normal_iteratorIPlSt6vectorIlSaIlEEEppEi:
.LFB2816:
	.cfi_startproc
	endbr64
	pushq	%rbp
	.cfi_def_cfa_offset 16
	.cfi_offset 6, -16
	movq	%rsp, %rbp
	.cfi_def_cfa_register 6
	subq	$48, %rsp
	movq	%rdi, -40(%rbp)
	movl	%esi, -44(%rbp)
	movq	%fs:40, %rax
	movq	%rax, -8(%rbp)
	xorl	%eax, %eax
	movq	-40(%rbp), %rax
	movq	(%rax), %rax
	leaq	8(%rax), %rcx
	movq	-40(%rbp), %rdx
	movq	%rcx, (%rdx)
	movq	%rax, -24(%rbp)
	leaq	-24(%rbp), %rdx
	leaq	-16(%rbp), %rax
	movq	%rdx, %rsi
	movq	%rax, %rdi
	call	_ZN9__gnu_cxx17__normal_iteratorIPlSt6vectorIlSaIlEEEC1ERKS1_
	movq	-16(%rbp), %rax
	movq	-8(%rbp), %rcx
	xorq	%fs:40, %rcx
	je	.L104
	call	__stack_chk_fail@PLT
.L104:
	leave
	.cfi_def_cfa 7, 8
	ret
	.cfi_endproc
.LFE2816:
	.size	_ZN9__gnu_cxx17__normal_iteratorIPlSt6vectorIlSaIlEEEppEi, .-_ZN9__gnu_cxx17__normal_iteratorIPlSt6vectorIlSaIlEEEppEi
	.section	.text._ZNKSt7__cxx114listIlSaIlEE4sizeEv,"axG",@progbits,_ZNKSt7__cxx114listIlSaIlEE4sizeEv,comdat
	.align 2
	.weak	_ZNKSt7__cxx114listIlSaIlEE4sizeEv
	.type	_ZNKSt7__cxx114listIlSaIlEE4sizeEv, @function
_ZNKSt7__cxx114listIlSaIlEE4sizeEv:
.LFB2817:
	.cfi_startproc
	.cfi_personality 0x9b,DW.ref.__gxx_personality_v0
	.cfi_lsda 0x1b,.LLSDA2817
	endbr64
	pushq	%rbp
	.cfi_def_cfa_offset 16
	.cfi_offset 6, -16
	movq	%rsp, %rbp
	.cfi_def_cfa_register 6
	subq	$16, %rsp
	movq	%rdi, -8(%rbp)
	movq	-8(%rbp), %rax
	movq	%rax, %rdi
	call	_ZNKSt7__cxx114listIlSaIlEE13_M_node_countEv
	leave
	.cfi_def_cfa 7, 8
	ret
	.cfi_endproc
.LFE2817:
	.section	.gcc_except_table
.LLSDA2817:
	.byte	0xff
	.byte	0xff
	.byte	0x1
	.uleb128 .LLSDACSE2817-.LLSDACSB2817
.LLSDACSB2817:
.LLSDACSE2817:
	.section	.text._ZNKSt7__cxx114listIlSaIlEE4sizeEv,"axG",@progbits,_ZNKSt7__cxx114listIlSaIlEE4sizeEv,comdat
	.size	_ZNKSt7__cxx114listIlSaIlEE4sizeEv, .-_ZNKSt7__cxx114listIlSaIlEE4sizeEv
	.section	.text._ZNK9__gnu_cxx17__normal_iteratorIPlSt6vectorIlSaIlEEEdeEv,"axG",@progbits,_ZNK9__gnu_cxx17__normal_iteratorIPlSt6vectorIlSaIlEEEdeEv,comdat
	.align 2
	.weak	_ZNK9__gnu_cxx17__normal_iteratorIPlSt6vectorIlSaIlEEEdeEv
	.type	_ZNK9__gnu_cxx17__normal_iteratorIPlSt6vectorIlSaIlEEEdeEv, @function
_ZNK9__gnu_cxx17__normal_iteratorIPlSt6vectorIlSaIlEEEdeEv:
.LFB2818:
	.cfi_startproc
	endbr64
	pushq	%rbp
	.cfi_def_cfa_offset 16
	.cfi_offset 6, -16
	movq	%rsp, %rbp
	.cfi_def_cfa_register 6
	movq	%rdi, -8(%rbp)
	movq	-8(%rbp), %rax
	movq	(%rax), %rax
	popq	%rbp
	.cfi_def_cfa 7, 8
	ret
	.cfi_endproc
.LFE2818:
	.size	_ZNK9__gnu_cxx17__normal_iteratorIPlSt6vectorIlSaIlEEEdeEv, .-_ZNK9__gnu_cxx17__normal_iteratorIPlSt6vectorIlSaIlEEEdeEv
	.section	.text._ZNSt7__cxx114listIlSaIlEE9push_backERKl,"axG",@progbits,_ZNSt7__cxx114listIlSaIlEE9push_backERKl,comdat
	.align 2
	.weak	_ZNSt7__cxx114listIlSaIlEE9push_backERKl
	.type	_ZNSt7__cxx114listIlSaIlEE9push_backERKl, @function
_ZNSt7__cxx114listIlSaIlEE9push_backERKl:
.LFB2819:
	.cfi_startproc
	endbr64
	pushq	%rbp
	.cfi_def_cfa_offset 16
	.cfi_offset 6, -16
	movq	%rsp, %rbp
	.cfi_def_cfa_register 6
	subq	$16, %rsp
	movq	%rdi, -8(%rbp)
	movq	%rsi, -16(%rbp)
	movq	-8(%rbp), %rax
	movq	%rax, %rdi
	call	_ZNSt7__cxx114listIlSaIlEE3endEv
	movq	%rax, %rcx
	movq	-16(%rbp), %rdx
	movq	-8(%rbp), %rax
	movq	%rcx, %rsi
	movq	%rax, %rdi
	call	_ZNSt7__cxx114listIlSaIlEE9_M_insertIJRKlEEEvSt14_List_iteratorIlEDpOT_
	nop
	leave
	.cfi_def_cfa 7, 8
	ret
	.cfi_endproc
.LFE2819:
	.size	_ZNSt7__cxx114listIlSaIlEE9push_backERKl, .-_ZNSt7__cxx114listIlSaIlEE9push_backERKl
	.section	.text._ZNSt14_List_iteratorIlEC2Ev,"axG",@progbits,_ZNSt14_List_iteratorIlEC5Ev,comdat
	.align 2
	.weak	_ZNSt14_List_iteratorIlEC2Ev
	.type	_ZNSt14_List_iteratorIlEC2Ev, @function
_ZNSt14_List_iteratorIlEC2Ev:
.LFB2821:
	.cfi_startproc
	endbr64
	pushq	%rbp
	.cfi_def_cfa_offset 16
	.cfi_offset 6, -16
	movq	%rsp, %rbp
	.cfi_def_cfa_register 6
	movq	%rdi, -8(%rbp)
	movq	-8(%rbp), %rax
	movq	$0, (%rax)
	nop
	popq	%rbp
	.cfi_def_cfa 7, 8
	ret
	.cfi_endproc
.LFE2821:
	.size	_ZNSt14_List_iteratorIlEC2Ev, .-_ZNSt14_List_iteratorIlEC2Ev
	.weak	_ZNSt14_List_iteratorIlEC1Ev
	.set	_ZNSt14_List_iteratorIlEC1Ev,_ZNSt14_List_iteratorIlEC2Ev
	.section	.text._ZNSt7__cxx114listIlSaIlEE5beginEv,"axG",@progbits,_ZNSt7__cxx114listIlSaIlEE5beginEv,comdat
	.align 2
	.weak	_ZNSt7__cxx114listIlSaIlEE5beginEv
	.type	_ZNSt7__cxx114listIlSaIlEE5beginEv, @function
_ZNSt7__cxx114listIlSaIlEE5beginEv:
.LFB2823:
	.cfi_startproc
	endbr64
	pushq	%rbp
	.cfi_def_cfa_offset 16
	.cfi_offset 6, -16
	movq	%rsp, %rbp
	.cfi_def_cfa_register 6
	subq	$32, %rsp
	movq	%rdi, -24(%rbp)
	movq	%fs:40, %rax
	movq	%rax, -8(%rbp)
	xorl	%eax, %eax
	movq	-24(%rbp), %rax
	movq	(%rax), %rdx
	leaq	-16(%rbp), %rax
	movq	%rdx, %rsi
	movq	%rax, %rdi
	call	_ZNSt14_List_iteratorIlEC1EPNSt8__detail15_List_node_baseE
	movq	-16(%rbp), %rax
	movq	-8(%rbp), %rcx
	xorq	%fs:40, %rcx
	je	.L113
	call	__stack_chk_fail@PLT
.L113:
	leave
	.cfi_def_cfa 7, 8
	ret
	.cfi_endproc
.LFE2823:
	.size	_ZNSt7__cxx114listIlSaIlEE5beginEv, .-_ZNSt7__cxx114listIlSaIlEE5beginEv
	.section	.text._ZNSt7__cxx114listIlSaIlEE3endEv,"axG",@progbits,_ZNSt7__cxx114listIlSaIlEE3endEv,comdat
	.align 2
	.weak	_ZNSt7__cxx114listIlSaIlEE3endEv
	.type	_ZNSt7__cxx114listIlSaIlEE3endEv, @function
_ZNSt7__cxx114listIlSaIlEE3endEv:
.LFB2824:
	.cfi_startproc
	endbr64
	pushq	%rbp
	.cfi_def_cfa_offset 16
	.cfi_offset 6, -16
	movq	%rsp, %rbp
	.cfi_def_cfa_register 6
	subq	$32, %rsp
	movq	%rdi, -24(%rbp)
	movq	%fs:40, %rax
	movq	%rax, -8(%rbp)
	xorl	%eax, %eax
	movq	-24(%rbp), %rdx
	leaq	-16(%rbp), %rax
	movq	%rdx, %rsi
	movq	%rax, %rdi
	call	_ZNSt14_List_iteratorIlEC1EPNSt8__detail15_List_node_baseE
	movq	-16(%rbp), %rax
	movq	-8(%rbp), %rcx
	xorq	%fs:40, %rcx
	je	.L116
	call	__stack_chk_fail@PLT
.L116:
	leave
	.cfi_def_cfa 7, 8
	ret
	.cfi_endproc
.LFE2824:
	.size	_ZNSt7__cxx114listIlSaIlEE3endEv, .-_ZNSt7__cxx114listIlSaIlEE3endEv
	.section	.text._ZStneRKSt14_List_iteratorIlES2_,"axG",@progbits,_ZStneRKSt14_List_iteratorIlES2_,comdat
	.weak	_ZStneRKSt14_List_iteratorIlES2_
	.type	_ZStneRKSt14_List_iteratorIlES2_, @function
_ZStneRKSt14_List_iteratorIlES2_:
.LFB2825:
	.cfi_startproc
	endbr64
	pushq	%rbp
	.cfi_def_cfa_offset 16
	.cfi_offset 6, -16
	movq	%rsp, %rbp
	.cfi_def_cfa_register 6
	movq	%rdi, -8(%rbp)
	movq	%rsi, -16(%rbp)
	movq	-8(%rbp), %rax
	movq	(%rax), %rdx
	movq	-16(%rbp), %rax
	movq	(%rax), %rax
	cmpq	%rax, %rdx
	setne	%al
	popq	%rbp
	.cfi_def_cfa 7, 8
	ret
	.cfi_endproc
.LFE2825:
	.size	_ZStneRKSt14_List_iteratorIlES2_, .-_ZStneRKSt14_List_iteratorIlES2_
	.section	.text._ZNSt14_List_iteratorIlEppEi,"axG",@progbits,_ZNSt14_List_iteratorIlEppEi,comdat
	.align 2
	.weak	_ZNSt14_List_iteratorIlEppEi
	.type	_ZNSt14_List_iteratorIlEppEi, @function
_ZNSt14_List_iteratorIlEppEi:
.LFB2826:
	.cfi_startproc
	endbr64
	pushq	%rbp
	.cfi_def_cfa_offset 16
	.cfi_offset 6, -16
	movq	%rsp, %rbp
	.cfi_def_cfa_register 6
	subq	$32, %rsp
	movq	%rdi, -24(%rbp)
	movl	%esi, -28(%rbp)
	movq	%fs:40, %rax
	movq	%rax, -8(%rbp)
	xorl	%eax, %eax
	movq	-24(%rbp), %rax
	movq	(%rax), %rax
	movq	%rax, -16(%rbp)
	movq	-24(%rbp), %rax
	movq	(%rax), %rax
	movq	(%rax), %rdx
	movq	-24(%rbp), %rax
	movq	%rdx, (%rax)
	movq	-16(%rbp), %rax
	movq	-8(%rbp), %rcx
	xorq	%fs:40, %rcx
	je	.L121
	call	__stack_chk_fail@PLT
.L121:
	leave
	.cfi_def_cfa 7, 8
	ret
	.cfi_endproc
.LFE2826:
	.size	_ZNSt14_List_iteratorIlEppEi, .-_ZNSt14_List_iteratorIlEppEi
	.section	.text._ZNKSt14_List_iteratorIlEdeEv,"axG",@progbits,_ZNKSt14_List_iteratorIlEdeEv,comdat
	.align 2
	.weak	_ZNKSt14_List_iteratorIlEdeEv
	.type	_ZNKSt14_List_iteratorIlEdeEv, @function
_ZNKSt14_List_iteratorIlEdeEv:
.LFB2827:
	.cfi_startproc
	endbr64
	pushq	%rbp
	.cfi_def_cfa_offset 16
	.cfi_offset 6, -16
	movq	%rsp, %rbp
	.cfi_def_cfa_register 6
	subq	$16, %rsp
	movq	%rdi, -8(%rbp)
	movq	-8(%rbp), %rax
	movq	(%rax), %rax
	movq	%rax, %rdi
	call	_ZNSt10_List_nodeIlE9_M_valptrEv
	leave
	.cfi_def_cfa 7, 8
	ret
	.cfi_endproc
.LFE2827:
	.size	_ZNKSt14_List_iteratorIlEdeEv, .-_ZNKSt14_List_iteratorIlEdeEv
	.section	.text._ZNSt6vectorIlSaIlEE9push_backERKl,"axG",@progbits,_ZNSt6vectorIlSaIlEE9push_backERKl,comdat
	.align 2
	.weak	_ZNSt6vectorIlSaIlEE9push_backERKl
	.type	_ZNSt6vectorIlSaIlEE9push_backERKl, @function
_ZNSt6vectorIlSaIlEE9push_backERKl:
.LFB2828:
	.cfi_startproc
	endbr64
	pushq	%rbp
	.cfi_def_cfa_offset 16
	.cfi_offset 6, -16
	movq	%rsp, %rbp
	.cfi_def_cfa_register 6
	subq	$16, %rsp
	movq	%rdi, -8(%rbp)
	movq	%rsi, -16(%rbp)
	movq	-8(%rbp), %rax
	movq	8(%rax), %rdx
	movq	-8(%rbp), %rax
	movq	16(%rax), %rax
	cmpq	%rax, %rdx
	je	.L125
	movq	-8(%rbp), %rax
	movq	8(%rax), %rcx
	movq	-8(%rbp), %rax
	movq	-16(%rbp), %rdx
	movq	%rcx, %rsi
	movq	%rax, %rdi
	call	_ZNSt16allocator_traitsISaIlEE9constructIlJRKlEEEvRS0_PT_DpOT0_
	movq	-8(%rbp), %rax
	movq	8(%rax), %rax
	leaq	8(%rax), %rdx
	movq	-8(%rbp), %rax
	movq	%rdx, 8(%rax)
	jmp	.L127
.L125:
	movq	-8(%rbp), %rax
	movq	%rax, %rdi
	call	_ZNSt6vectorIlSaIlEE3endEv
	movq	%rax, %rcx
	movq	-16(%rbp), %rdx
	movq	-8(%rbp), %rax
	movq	%rcx, %rsi
	movq	%rax, %rdi
	call	_ZNSt6vectorIlSaIlEE17_M_realloc_insertIJRKlEEEvN9__gnu_cxx17__normal_iteratorIPlS1_EEDpOT_
.L127:
	nop
	leave
	.cfi_def_cfa 7, 8
	ret
	.cfi_endproc
.LFE2828:
	.size	_ZNSt6vectorIlSaIlEE9push_backERKl, .-_ZNSt6vectorIlSaIlEE9push_backERKl
	.section	.text._ZNSt7__cxx114listIlSaIlEE9pop_frontEv,"axG",@progbits,_ZNSt7__cxx114listIlSaIlEE9pop_frontEv,comdat
	.align 2
	.weak	_ZNSt7__cxx114listIlSaIlEE9pop_frontEv
	.type	_ZNSt7__cxx114listIlSaIlEE9pop_frontEv, @function
_ZNSt7__cxx114listIlSaIlEE9pop_frontEv:
.LFB2829:
	.cfi_startproc
	endbr64
	pushq	%rbp
	.cfi_def_cfa_offset 16
	.cfi_offset 6, -16
	movq	%rsp, %rbp
	.cfi_def_cfa_register 6
	subq	$16, %rsp
	movq	%rdi, -8(%rbp)
	movq	-8(%rbp), %rax
	movq	%rax, %rdi
	call	_ZNSt7__cxx114listIlSaIlEE5beginEv
	movq	%rax, %rdx
	movq	-8(%rbp), %rax
	movq	%rdx, %rsi
	movq	%rax, %rdi
	call	_ZNSt7__cxx114listIlSaIlEE8_M_eraseESt14_List_iteratorIlE
	nop
	leave
	.cfi_def_cfa 7, 8
	ret
	.cfi_endproc
.LFE2829:
	.size	_ZNSt7__cxx114listIlSaIlEE9pop_frontEv, .-_ZNSt7__cxx114listIlSaIlEE9pop_frontEv
	.section	.text._ZNSt7__cxx1110_List_baseIcSaIcEE10_List_implC2Ev,"axG",@progbits,_ZNSt7__cxx1110_List_baseIcSaIcEE10_List_implC5Ev,comdat
	.align 2
	.weak	_ZNSt7__cxx1110_List_baseIcSaIcEE10_List_implC2Ev
	.type	_ZNSt7__cxx1110_List_baseIcSaIcEE10_List_implC2Ev, @function
_ZNSt7__cxx1110_List_baseIcSaIcEE10_List_implC2Ev:
.LFB2831:
	.cfi_startproc
	endbr64
	pushq	%rbp
	.cfi_def_cfa_offset 16
	.cfi_offset 6, -16
	movq	%rsp, %rbp
	.cfi_def_cfa_register 6
	subq	$16, %rsp
	movq	%rdi, -8(%rbp)
	movq	-8(%rbp), %rax
	movq	%rax, %rdi
	call	_ZNSaISt10_List_nodeIcEEC2Ev
	movq	-8(%rbp), %rax
	movq	%rax, %rdi
	call	_ZNSt8__detail17_List_node_headerC1Ev
	nop
	leave
	.cfi_def_cfa 7, 8
	ret
	.cfi_endproc
.LFE2831:
	.size	_ZNSt7__cxx1110_List_baseIcSaIcEE10_List_implC2Ev, .-_ZNSt7__cxx1110_List_baseIcSaIcEE10_List_implC2Ev
	.weak	_ZNSt7__cxx1110_List_baseIcSaIcEE10_List_implC1Ev
	.set	_ZNSt7__cxx1110_List_baseIcSaIcEE10_List_implC1Ev,_ZNSt7__cxx1110_List_baseIcSaIcEE10_List_implC2Ev
	.section	.text._ZNSaISt10_List_nodeIcEED2Ev,"axG",@progbits,_ZNSaISt10_List_nodeIcEED5Ev,comdat
	.align 2
	.weak	_ZNSaISt10_List_nodeIcEED2Ev
	.type	_ZNSaISt10_List_nodeIcEED2Ev, @function
_ZNSaISt10_List_nodeIcEED2Ev:
.LFB2834:
	.cfi_startproc
	endbr64
	pushq	%rbp
	.cfi_def_cfa_offset 16
	.cfi_offset 6, -16
	movq	%rsp, %rbp
	.cfi_def_cfa_register 6
	subq	$16, %rsp
	movq	%rdi, -8(%rbp)
	movq	-8(%rbp), %rax
	movq	%rax, %rdi
	call	_ZN9__gnu_cxx13new_allocatorISt10_List_nodeIcEED2Ev
	nop
	leave
	.cfi_def_cfa 7, 8
	ret
	.cfi_endproc
.LFE2834:
	.size	_ZNSaISt10_List_nodeIcEED2Ev, .-_ZNSaISt10_List_nodeIcEED2Ev
	.weak	_ZNSaISt10_List_nodeIcEED1Ev
	.set	_ZNSaISt10_List_nodeIcEED1Ev,_ZNSaISt10_List_nodeIcEED2Ev
	.section	.text._ZNSt7__cxx1110_List_baseIcSaIcEED2Ev,"axG",@progbits,_ZNSt7__cxx1110_List_baseIcSaIcEED5Ev,comdat
	.align 2
	.weak	_ZNSt7__cxx1110_List_baseIcSaIcEED2Ev
	.type	_ZNSt7__cxx1110_List_baseIcSaIcEED2Ev, @function
_ZNSt7__cxx1110_List_baseIcSaIcEED2Ev:
.LFB2837:
	.cfi_startproc
	endbr64
	pushq	%rbp
	.cfi_def_cfa_offset 16
	.cfi_offset 6, -16
	movq	%rsp, %rbp
	.cfi_def_cfa_register 6
	subq	$16, %rsp
	movq	%rdi, -8(%rbp)
	movq	-8(%rbp), %rax
	movq	%rax, %rdi
	call	_ZNSt7__cxx1110_List_baseIcSaIcEE8_M_clearEv
	movq	-8(%rbp), %rax
	movq	%rax, %rdi
	call	_ZNSt7__cxx1110_List_baseIcSaIcEE10_List_implD1Ev
	nop
	leave
	.cfi_def_cfa 7, 8
	ret
	.cfi_endproc
.LFE2837:
	.size	_ZNSt7__cxx1110_List_baseIcSaIcEED2Ev, .-_ZNSt7__cxx1110_List_baseIcSaIcEED2Ev
	.weak	_ZNSt7__cxx1110_List_baseIcSaIcEED1Ev
	.set	_ZNSt7__cxx1110_List_baseIcSaIcEED1Ev,_ZNSt7__cxx1110_List_baseIcSaIcEED2Ev
	.section	.text._ZNSt12_Vector_baseIlSaIlEE12_Vector_implC2Ev,"axG",@progbits,_ZNSt12_Vector_baseIlSaIlEE12_Vector_implC5Ev,comdat
	.align 2
	.weak	_ZNSt12_Vector_baseIlSaIlEE12_Vector_implC2Ev
	.type	_ZNSt12_Vector_baseIlSaIlEE12_Vector_implC2Ev, @function
_ZNSt12_Vector_baseIlSaIlEE12_Vector_implC2Ev:
.LFB2840:
	.cfi_startproc
	endbr64
	pushq	%rbp
	.cfi_def_cfa_offset 16
	.cfi_offset 6, -16
	movq	%rsp, %rbp
	.cfi_def_cfa_register 6
	subq	$16, %rsp
	movq	%rdi, -8(%rbp)
	movq	-8(%rbp), %rax
	movq	%rax, %rdi
	call	_ZNSaIlEC2Ev
	movq	-8(%rbp), %rax
	movq	%rax, %rdi
	call	_ZNSt12_Vector_baseIlSaIlEE17_Vector_impl_dataC2Ev
	nop
	leave
	.cfi_def_cfa 7, 8
	ret
	.cfi_endproc
.LFE2840:
	.size	_ZNSt12_Vector_baseIlSaIlEE12_Vector_implC2Ev, .-_ZNSt12_Vector_baseIlSaIlEE12_Vector_implC2Ev
	.weak	_ZNSt12_Vector_baseIlSaIlEE12_Vector_implC1Ev
	.set	_ZNSt12_Vector_baseIlSaIlEE12_Vector_implC1Ev,_ZNSt12_Vector_baseIlSaIlEE12_Vector_implC2Ev
	.section	.text._ZNSaIlED2Ev,"axG",@progbits,_ZNSaIlED5Ev,comdat
	.align 2
	.weak	_ZNSaIlED2Ev
	.type	_ZNSaIlED2Ev, @function
_ZNSaIlED2Ev:
.LFB2843:
	.cfi_startproc
	endbr64
	pushq	%rbp
	.cfi_def_cfa_offset 16
	.cfi_offset 6, -16
	movq	%rsp, %rbp
	.cfi_def_cfa_register 6
	subq	$16, %rsp
	movq	%rdi, -8(%rbp)
	movq	-8(%rbp), %rax
	movq	%rax, %rdi
	call	_ZN9__gnu_cxx13new_allocatorIlED2Ev
	nop
	leave
	.cfi_def_cfa 7, 8
	ret
	.cfi_endproc
.LFE2843:
	.size	_ZNSaIlED2Ev, .-_ZNSaIlED2Ev
	.weak	_ZNSaIlED1Ev
	.set	_ZNSaIlED1Ev,_ZNSaIlED2Ev
	.section	.text._ZNSt12_Vector_baseIlSaIlEED2Ev,"axG",@progbits,_ZNSt12_Vector_baseIlSaIlEED5Ev,comdat
	.align 2
	.weak	_ZNSt12_Vector_baseIlSaIlEED2Ev
	.type	_ZNSt12_Vector_baseIlSaIlEED2Ev, @function
_ZNSt12_Vector_baseIlSaIlEED2Ev:
.LFB2846:
	.cfi_startproc
	.cfi_personality 0x9b,DW.ref.__gxx_personality_v0
	.cfi_lsda 0x1b,.LLSDA2846
	endbr64
	pushq	%rbp
	.cfi_def_cfa_offset 16
	.cfi_offset 6, -16
	movq	%rsp, %rbp
	.cfi_def_cfa_register 6
	subq	$16, %rsp
	movq	%rdi, -8(%rbp)
	movq	-8(%rbp), %rax
	movq	16(%rax), %rdx
	movq	-8(%rbp), %rax
	movq	(%rax), %rax
	subq	%rax, %rdx
	movq	%rdx, %rax
	sarq	$3, %rax
	movq	%rax, %rdx
	movq	-8(%rbp), %rax
	movq	(%rax), %rcx
	movq	-8(%rbp), %rax
	movq	%rcx, %rsi
	movq	%rax, %rdi
	call	_ZNSt12_Vector_baseIlSaIlEE13_M_deallocateEPlm
	movq	-8(%rbp), %rax
	movq	%rax, %rdi
	call	_ZNSt12_Vector_baseIlSaIlEE12_Vector_implD1Ev
	nop
	leave
	.cfi_def_cfa 7, 8
	ret
	.cfi_endproc
.LFE2846:
	.section	.gcc_except_table
.LLSDA2846:
	.byte	0xff
	.byte	0xff
	.byte	0x1
	.uleb128 .LLSDACSE2846-.LLSDACSB2846
.LLSDACSB2846:
.LLSDACSE2846:
	.section	.text._ZNSt12_Vector_baseIlSaIlEED2Ev,"axG",@progbits,_ZNSt12_Vector_baseIlSaIlEED5Ev,comdat
	.size	_ZNSt12_Vector_baseIlSaIlEED2Ev, .-_ZNSt12_Vector_baseIlSaIlEED2Ev
	.weak	_ZNSt12_Vector_baseIlSaIlEED1Ev
	.set	_ZNSt12_Vector_baseIlSaIlEED1Ev,_ZNSt12_Vector_baseIlSaIlEED2Ev
	.section	.text._ZNSt6vectorIlSaIlEED2Ev,"axG",@progbits,_ZNSt6vectorIlSaIlEED5Ev,comdat
	.align 2
	.weak	_ZNSt6vectorIlSaIlEED2Ev
	.type	_ZNSt6vectorIlSaIlEED2Ev, @function
_ZNSt6vectorIlSaIlEED2Ev:
.LFB2849:
	.cfi_startproc
	.cfi_personality 0x9b,DW.ref.__gxx_personality_v0
	.cfi_lsda 0x1b,.LLSDA2849
	endbr64
	pushq	%rbp
	.cfi_def_cfa_offset 16
	.cfi_offset 6, -16
	movq	%rsp, %rbp
	.cfi_def_cfa_register 6
	subq	$16, %rsp
	movq	%rdi, -8(%rbp)
	movq	-8(%rbp), %rax
	movq	%rax, %rdi
	call	_ZNSt12_Vector_baseIlSaIlEE19_M_get_Tp_allocatorEv
	movq	%rax, %rdx
	movq	-8(%rbp), %rax
	movq	8(%rax), %rcx
	movq	-8(%rbp), %rax
	movq	(%rax), %rax
	movq	%rcx, %rsi
	movq	%rax, %rdi
	call	_ZSt8_DestroyIPllEvT_S1_RSaIT0_E
	movq	-8(%rbp), %rax
	movq	%rax, %rdi
	call	_ZNSt12_Vector_baseIlSaIlEED2Ev
	nop
	leave
	.cfi_def_cfa 7, 8
	ret
	.cfi_endproc
.LFE2849:
	.section	.gcc_except_table
.LLSDA2849:
	.byte	0xff
	.byte	0xff
	.byte	0x1
	.uleb128 .LLSDACSE2849-.LLSDACSB2849
.LLSDACSB2849:
.LLSDACSE2849:
	.section	.text._ZNSt6vectorIlSaIlEED2Ev,"axG",@progbits,_ZNSt6vectorIlSaIlEED5Ev,comdat
	.size	_ZNSt6vectorIlSaIlEED2Ev, .-_ZNSt6vectorIlSaIlEED2Ev
	.weak	_ZNSt6vectorIlSaIlEED1Ev
	.set	_ZNSt6vectorIlSaIlEED1Ev,_ZNSt6vectorIlSaIlEED2Ev
	.section	.text._ZSt4sortIN9__gnu_cxx17__normal_iteratorIPlSt6vectorIlSaIlEEEEEvT_S7_,"axG",@progbits,_ZSt4sortIN9__gnu_cxx17__normal_iteratorIPlSt6vectorIlSaIlEEEEEvT_S7_,comdat
	.weak	_ZSt4sortIN9__gnu_cxx17__normal_iteratorIPlSt6vectorIlSaIlEEEEEvT_S7_
	.type	_ZSt4sortIN9__gnu_cxx17__normal_iteratorIPlSt6vectorIlSaIlEEEEEvT_S7_, @function
_ZSt4sortIN9__gnu_cxx17__normal_iteratorIPlSt6vectorIlSaIlEEEEEvT_S7_:
.LFB2851:
	.cfi_startproc
	endbr64
	pushq	%rbp
	.cfi_def_cfa_offset 16
	.cfi_offset 6, -16
	movq	%rsp, %rbp
	.cfi_def_cfa_register 6
	subq	$32, %rsp
	movq	%rdi, -24(%rbp)
	movq	%rsi, -32(%rbp)
	movq	%fs:40, %rax
	movq	%rax, -8(%rbp)
	xorl	%eax, %eax
	call	_ZN9__gnu_cxx5__ops16__iter_less_iterEv
	movq	-32(%rbp), %rdx
	movq	-24(%rbp), %rax
	movq	%rdx, %rsi
	movq	%rax, %rdi
	call	_ZSt6__sortIN9__gnu_cxx17__normal_iteratorIPlSt6vectorIlSaIlEEEENS0_5__ops15_Iter_less_iterEEvT_S9_T0_
	nop
	movq	-8(%rbp), %rax
	xorq	%fs:40, %rax
	je	.L137
	call	__stack_chk_fail@PLT
.L137:
	leave
	.cfi_def_cfa 7, 8
	ret
	.cfi_endproc
.LFE2851:
	.size	_ZSt4sortIN9__gnu_cxx17__normal_iteratorIPlSt6vectorIlSaIlEEEEEvT_S7_, .-_ZSt4sortIN9__gnu_cxx17__normal_iteratorIPlSt6vectorIlSaIlEEEEEvT_S7_
	.section	.text._ZNKSt6vectorIlSaIlEE4sizeEv,"axG",@progbits,_ZNKSt6vectorIlSaIlEE4sizeEv,comdat
	.align 2
	.weak	_ZNKSt6vectorIlSaIlEE4sizeEv
	.type	_ZNKSt6vectorIlSaIlEE4sizeEv, @function
_ZNKSt6vectorIlSaIlEE4sizeEv:
.LFB2852:
	.cfi_startproc
	endbr64
	pushq	%rbp
	.cfi_def_cfa_offset 16
	.cfi_offset 6, -16
	movq	%rsp, %rbp
	.cfi_def_cfa_register 6
	movq	%rdi, -8(%rbp)
	movq	-8(%rbp), %rax
	movq	8(%rax), %rdx
	movq	-8(%rbp), %rax
	movq	(%rax), %rax
	subq	%rax, %rdx
	movq	%rdx, %rax
	sarq	$3, %rax
	popq	%rbp
	.cfi_def_cfa 7, 8
	ret
	.cfi_endproc
.LFE2852:
	.size	_ZNKSt6vectorIlSaIlEE4sizeEv, .-_ZNKSt6vectorIlSaIlEE4sizeEv
	.section	.text._ZNSt6vectorIlSaIlEEixEm,"axG",@progbits,_ZNSt6vectorIlSaIlEEixEm,comdat
	.align 2
	.weak	_ZNSt6vectorIlSaIlEEixEm
	.type	_ZNSt6vectorIlSaIlEEixEm, @function
_ZNSt6vectorIlSaIlEEixEm:
.LFB2853:
	.cfi_startproc
	endbr64
	pushq	%rbp
	.cfi_def_cfa_offset 16
	.cfi_offset 6, -16
	movq	%rsp, %rbp
	.cfi_def_cfa_register 6
	movq	%rdi, -8(%rbp)
	movq	%rsi, -16(%rbp)
	movq	-8(%rbp), %rax
	movq	(%rax), %rax
	movq	-16(%rbp), %rdx
	salq	$3, %rdx
	addq	%rdx, %rax
	popq	%rbp
	.cfi_def_cfa 7, 8
	ret
	.cfi_endproc
.LFE2853:
	.size	_ZNSt6vectorIlSaIlEEixEm, .-_ZNSt6vectorIlSaIlEEixEm
	.section	.text._ZNKSt7__cxx114listIcSaIcEE13_M_node_countEv,"axG",@progbits,_ZNKSt7__cxx114listIcSaIcEE13_M_node_countEv,comdat
	.align 2
	.weak	_ZNKSt7__cxx114listIcSaIcEE13_M_node_countEv
	.type	_ZNKSt7__cxx114listIcSaIcEE13_M_node_countEv, @function
_ZNKSt7__cxx114listIcSaIcEE13_M_node_countEv:
.LFB2962:
	.cfi_startproc
	endbr64
	pushq	%rbp
	.cfi_def_cfa_offset 16
	.cfi_offset 6, -16
	movq	%rsp, %rbp
	.cfi_def_cfa_register 6
	subq	$16, %rsp
	movq	%rdi, -8(%rbp)
	movq	-8(%rbp), %rax
	movq	%rax, %rdi
	call	_ZNKSt7__cxx1110_List_baseIcSaIcEE11_M_get_sizeEv
	leave
	.cfi_def_cfa 7, 8
	ret
	.cfi_endproc
.LFE2962:
	.size	_ZNKSt7__cxx114listIcSaIcEE13_M_node_countEv, .-_ZNKSt7__cxx114listIcSaIcEE13_M_node_countEv
	.section	.text._ZNSt14_List_iteratorIcEC2EPNSt8__detail15_List_node_baseE,"axG",@progbits,_ZNSt14_List_iteratorIcEC5EPNSt8__detail15_List_node_baseE,comdat
	.align 2
	.weak	_ZNSt14_List_iteratorIcEC2EPNSt8__detail15_List_node_baseE
	.type	_ZNSt14_List_iteratorIcEC2EPNSt8__detail15_List_node_baseE, @function
_ZNSt14_List_iteratorIcEC2EPNSt8__detail15_List_node_baseE:
.LFB2964:
	.cfi_startproc
	endbr64
	pushq	%rbp
	.cfi_def_cfa_offset 16
	.cfi_offset 6, -16
	movq	%rsp, %rbp
	.cfi_def_cfa_register 6
	movq	%rdi, -8(%rbp)
	movq	%rsi, -16(%rbp)
	movq	-8(%rbp), %rax
	movq	-16(%rbp), %rdx
	movq	%rdx, (%rax)
	nop
	popq	%rbp
	.cfi_def_cfa 7, 8
	ret
	.cfi_endproc
.LFE2964:
	.size	_ZNSt14_List_iteratorIcEC2EPNSt8__detail15_List_node_baseE, .-_ZNSt14_List_iteratorIcEC2EPNSt8__detail15_List_node_baseE
	.weak	_ZNSt14_List_iteratorIcEC1EPNSt8__detail15_List_node_baseE
	.set	_ZNSt14_List_iteratorIcEC1EPNSt8__detail15_List_node_baseE,_ZNSt14_List_iteratorIcEC2EPNSt8__detail15_List_node_baseE
	.section	.text._ZNSt10_List_nodeIcE9_M_valptrEv,"axG",@progbits,_ZNSt10_List_nodeIcE9_M_valptrEv,comdat
	.align 2
	.weak	_ZNSt10_List_nodeIcE9_M_valptrEv
	.type	_ZNSt10_List_nodeIcE9_M_valptrEv, @function
_ZNSt10_List_nodeIcE9_M_valptrEv:
.LFB2966:
	.cfi_startproc
	endbr64
	pushq	%rbp
	.cfi_def_cfa_offset 16
	.cfi_offset 6, -16
	movq	%rsp, %rbp
	.cfi_def_cfa_register 6
	subq	$16, %rsp
	movq	%rdi, -8(%rbp)
	movq	-8(%rbp), %rax
	addq	$16, %rax
	movq	%rax, %rdi
	call	_ZN9__gnu_cxx16__aligned_membufIcE6_M_ptrEv
	leave
	.cfi_def_cfa 7, 8
	ret
	.cfi_endproc
.LFE2966:
	.size	_ZNSt10_List_nodeIcE9_M_valptrEv, .-_ZNSt10_List_nodeIcE9_M_valptrEv
	.section	.text._ZNSt7__cxx114listIcSaIcEE9_M_insertIJRKcEEEvSt14_List_iteratorIcEDpOT_,"axG",@progbits,_ZNSt7__cxx114listIcSaIcEE9_M_insertIJRKcEEEvSt14_List_iteratorIcEDpOT_,comdat
	.align 2
	.weak	_ZNSt7__cxx114listIcSaIcEE9_M_insertIJRKcEEEvSt14_List_iteratorIcEDpOT_
	.type	_ZNSt7__cxx114listIcSaIcEE9_M_insertIJRKcEEEvSt14_List_iteratorIcEDpOT_, @function
_ZNSt7__cxx114listIcSaIcEE9_M_insertIJRKcEEEvSt14_List_iteratorIcEDpOT_:
.LFB2967:
	.cfi_startproc
	endbr64
	pushq	%rbp
	.cfi_def_cfa_offset 16
	.cfi_offset 6, -16
	movq	%rsp, %rbp
	.cfi_def_cfa_register 6
	subq	$48, %rsp
	movq	%rdi, -24(%rbp)
	movq	%rsi, -32(%rbp)
	movq	%rdx, -40(%rbp)
	movq	-40(%rbp), %rax
	movq	%rax, %rdi
	call	_ZSt7forwardIRKcEOT_RNSt16remove_referenceIS2_E4typeE
	movq	%rax, %rdx
	movq	-24(%rbp), %rax
	movq	%rdx, %rsi
	movq	%rax, %rdi
	call	_ZNSt7__cxx114listIcSaIcEE14_M_create_nodeIJRKcEEEPSt10_List_nodeIcEDpOT_
	movq	%rax, -8(%rbp)
	movq	-8(%rbp), %rax
	movq	-32(%rbp), %rdx
	movq	%rdx, %rsi
	movq	%rax, %rdi
	call	_ZNSt8__detail15_List_node_base7_M_hookEPS0_@PLT
	movq	-24(%rbp), %rax
	movl	$1, %esi
	movq	%rax, %rdi
	call	_ZNSt7__cxx1110_List_baseIcSaIcEE11_M_inc_sizeEm
	nop
	leave
	.cfi_def_cfa 7, 8
	ret
	.cfi_endproc
.LFE2967:
	.size	_ZNSt7__cxx114listIcSaIcEE9_M_insertIJRKcEEEvSt14_List_iteratorIcEDpOT_, .-_ZNSt7__cxx114listIcSaIcEE9_M_insertIJRKcEEEvSt14_List_iteratorIcEDpOT_
	.section	.text._ZSt4moveIRlEONSt16remove_referenceIT_E4typeEOS2_,"axG",@progbits,_ZSt4moveIRlEONSt16remove_referenceIT_E4typeEOS2_,comdat
	.weak	_ZSt4moveIRlEONSt16remove_referenceIT_E4typeEOS2_
	.type	_ZSt4moveIRlEONSt16remove_referenceIT_E4typeEOS2_, @function
_ZSt4moveIRlEONSt16remove_referenceIT_E4typeEOS2_:
.LFB2968:
	.cfi_startproc
	endbr64
	pushq	%rbp
	.cfi_def_cfa_offset 16
	.cfi_offset 6, -16
	movq	%rsp, %rbp
	.cfi_def_cfa_register 6
	movq	%rdi, -8(%rbp)
	movq	-8(%rbp), %rax
	popq	%rbp
	.cfi_def_cfa 7, 8
	ret
	.cfi_endproc
.LFE2968:
	.size	_ZSt4moveIRlEONSt16remove_referenceIT_E4typeEOS2_, .-_ZSt4moveIRlEONSt16remove_referenceIT_E4typeEOS2_
	.section	.text._ZNSt6vectorIlSaIlEE12emplace_backIJlEEEvDpOT_,"axG",@progbits,_ZNSt6vectorIlSaIlEE12emplace_backIJlEEEvDpOT_,comdat
	.align 2
	.weak	_ZNSt6vectorIlSaIlEE12emplace_backIJlEEEvDpOT_
	.type	_ZNSt6vectorIlSaIlEE12emplace_backIJlEEEvDpOT_, @function
_ZNSt6vectorIlSaIlEE12emplace_backIJlEEEvDpOT_:
.LFB2969:
	.cfi_startproc
	endbr64
	pushq	%rbp
	.cfi_def_cfa_offset 16
	.cfi_offset 6, -16
	movq	%rsp, %rbp
	.cfi_def_cfa_register 6
	pushq	%rbx
	subq	$24, %rsp
	.cfi_offset 3, -24
	movq	%rdi, -24(%rbp)
	movq	%rsi, -32(%rbp)
	movq	-24(%rbp), %rax
	movq	8(%rax), %rdx
	movq	-24(%rbp), %rax
	movq	16(%rax), %rax
	cmpq	%rax, %rdx
	je	.L151
	movq	-32(%rbp), %rax
	movq	%rax, %rdi
	call	_ZSt7forwardIlEOT_RNSt16remove_referenceIS0_E4typeE
	movq	%rax, %rdx
	movq	-24(%rbp), %rax
	movq	8(%rax), %rcx
	movq	-24(%rbp), %rax
	movq	%rcx, %rsi
	movq	%rax, %rdi
	call	_ZNSt16allocator_traitsISaIlEE9constructIlJlEEEvRS0_PT_DpOT0_
	movq	-24(%rbp), %rax
	movq	8(%rax), %rax
	leaq	8(%rax), %rdx
	movq	-24(%rbp), %rax
	movq	%rdx, 8(%rax)
	jmp	.L153
.L151:
	movq	-32(%rbp), %rax
	movq	%rax, %rdi
	call	_ZSt7forwardIlEOT_RNSt16remove_referenceIS0_E4typeE
	movq	%rax, %rbx
	movq	-24(%rbp), %rax
	movq	%rax, %rdi
	call	_ZNSt6vectorIlSaIlEE3endEv
	movq	%rax, %rcx
	movq	-24(%rbp), %rax
	movq	%rbx, %rdx
	movq	%rcx, %rsi
	movq	%rax, %rdi
	call	_ZNSt6vectorIlSaIlEE17_M_realloc_insertIJlEEEvN9__gnu_cxx17__normal_iteratorIPlS1_EEDpOT_
.L153:
	nop
	addq	$24, %rsp
	popq	%rbx
	popq	%rbp
	.cfi_def_cfa 7, 8
	ret
	.cfi_endproc
.LFE2969:
	.size	_ZNSt6vectorIlSaIlEE12emplace_backIJlEEEvDpOT_, .-_ZNSt6vectorIlSaIlEE12emplace_backIJlEEEvDpOT_
	.section	.text._ZNSt7__cxx114listIcSaIcEE8_M_eraseESt14_List_iteratorIcE,"axG",@progbits,_ZNSt7__cxx114listIcSaIcEE8_M_eraseESt14_List_iteratorIcE,comdat
	.align 2
	.weak	_ZNSt7__cxx114listIcSaIcEE8_M_eraseESt14_List_iteratorIcE
	.type	_ZNSt7__cxx114listIcSaIcEE8_M_eraseESt14_List_iteratorIcE, @function
_ZNSt7__cxx114listIcSaIcEE8_M_eraseESt14_List_iteratorIcE:
.LFB2970:
	.cfi_startproc
	endbr64
	pushq	%rbp
	.cfi_def_cfa_offset 16
	.cfi_offset 6, -16
	movq	%rsp, %rbp
	.cfi_def_cfa_register 6
	pushq	%rbx
	subq	$40, %rsp
	.cfi_offset 3, -24
	movq	%rdi, -40(%rbp)
	movq	%rsi, -48(%rbp)
	movq	-40(%rbp), %rax
	movl	$1, %esi
	movq	%rax, %rdi
	call	_ZNSt7__cxx1110_List_baseIcSaIcEE11_M_dec_sizeEm
	movq	-48(%rbp), %rax
	movq	%rax, %rdi
	call	_ZNSt8__detail15_List_node_base9_M_unhookEv@PLT
	movq	-48(%rbp), %rax
	movq	%rax, -24(%rbp)
	movq	-24(%rbp), %rax
	movq	%rax, %rdi
	call	_ZNSt10_List_nodeIcE9_M_valptrEv
	movq	%rax, %rbx
	movq	-40(%rbp), %rax
	movq	%rax, %rdi
	call	_ZNSt7__cxx1110_List_baseIcSaIcEE21_M_get_Node_allocatorEv
	movq	%rbx, %rsi
	movq	%rax, %rdi
	call	_ZNSt16allocator_traitsISaISt10_List_nodeIcEEE7destroyIcEEvRS2_PT_
	movq	-40(%rbp), %rax
	movq	-24(%rbp), %rdx
	movq	%rdx, %rsi
	movq	%rax, %rdi
	call	_ZNSt7__cxx1110_List_baseIcSaIcEE11_M_put_nodeEPSt10_List_nodeIcE
	nop
	addq	$40, %rsp
	popq	%rbx
	popq	%rbp
	.cfi_def_cfa 7, 8
	ret
	.cfi_endproc
.LFE2970:
	.size	_ZNSt7__cxx114listIcSaIcEE8_M_eraseESt14_List_iteratorIcE, .-_ZNSt7__cxx114listIcSaIcEE8_M_eraseESt14_List_iteratorIcE
	.section	.text._ZNSaISt10_List_nodeIlEEC2Ev,"axG",@progbits,_ZNSaISt10_List_nodeIlEEC5Ev,comdat
	.align 2
	.weak	_ZNSaISt10_List_nodeIlEEC2Ev
	.type	_ZNSaISt10_List_nodeIlEEC2Ev, @function
_ZNSaISt10_List_nodeIlEEC2Ev:
.LFB2972:
	.cfi_startproc
	endbr64
	pushq	%rbp
	.cfi_def_cfa_offset 16
	.cfi_offset 6, -16
	movq	%rsp, %rbp
	.cfi_def_cfa_register 6
	subq	$16, %rsp
	movq	%rdi, -8(%rbp)
	movq	-8(%rbp), %rax
	movq	%rax, %rdi
	call	_ZN9__gnu_cxx13new_allocatorISt10_List_nodeIlEEC2Ev
	nop
	leave
	.cfi_def_cfa 7, 8
	ret
	.cfi_endproc
.LFE2972:
	.size	_ZNSaISt10_List_nodeIlEEC2Ev, .-_ZNSaISt10_List_nodeIlEEC2Ev
	.weak	_ZNSaISt10_List_nodeIlEEC1Ev
	.set	_ZNSaISt10_List_nodeIlEEC1Ev,_ZNSaISt10_List_nodeIlEEC2Ev
	.section	.text._ZN9__gnu_cxx13new_allocatorISt10_List_nodeIlEED2Ev,"axG",@progbits,_ZN9__gnu_cxx13new_allocatorISt10_List_nodeIlEED5Ev,comdat
	.align 2
	.weak	_ZN9__gnu_cxx13new_allocatorISt10_List_nodeIlEED2Ev
	.type	_ZN9__gnu_cxx13new_allocatorISt10_List_nodeIlEED2Ev, @function
_ZN9__gnu_cxx13new_allocatorISt10_List_nodeIlEED2Ev:
.LFB2975:
	.cfi_startproc
	endbr64
	pushq	%rbp
	.cfi_def_cfa_offset 16
	.cfi_offset 6, -16
	movq	%rsp, %rbp
	.cfi_def_cfa_register 6
	movq	%rdi, -8(%rbp)
	nop
	popq	%rbp
	.cfi_def_cfa 7, 8
	ret
	.cfi_endproc
.LFE2975:
	.size	_ZN9__gnu_cxx13new_allocatorISt10_List_nodeIlEED2Ev, .-_ZN9__gnu_cxx13new_allocatorISt10_List_nodeIlEED2Ev
	.weak	_ZN9__gnu_cxx13new_allocatorISt10_List_nodeIlEED1Ev
	.set	_ZN9__gnu_cxx13new_allocatorISt10_List_nodeIlEED1Ev,_ZN9__gnu_cxx13new_allocatorISt10_List_nodeIlEED2Ev
	.section	.text._ZNSt7__cxx1110_List_baseIlSaIlEE8_M_clearEv,"axG",@progbits,_ZNSt7__cxx1110_List_baseIlSaIlEE8_M_clearEv,comdat
	.align 2
	.weak	_ZNSt7__cxx1110_List_baseIlSaIlEE8_M_clearEv
	.type	_ZNSt7__cxx1110_List_baseIlSaIlEE8_M_clearEv, @function
_ZNSt7__cxx1110_List_baseIlSaIlEE8_M_clearEv:
.LFB2977:
	.cfi_startproc
	endbr64
	pushq	%rbp
	.cfi_def_cfa_offset 16
	.cfi_offset 6, -16
	movq	%rsp, %rbp
	.cfi_def_cfa_register 6
	subq	$48, %rsp
	movq	%rdi, -40(%rbp)
	movq	-40(%rbp), %rax
	movq	(%rax), %rax
	movq	%rax, -24(%rbp)
.L159:
	movq	-40(%rbp), %rax
	cmpq	%rax, -24(%rbp)
	je	.L160
	movq	-24(%rbp), %rax
	movq	%rax, -16(%rbp)
	movq	-16(%rbp), %rax
	movq	(%rax), %rax
	movq	%rax, -24(%rbp)
	movq	-16(%rbp), %rax
	movq	%rax, %rdi
	call	_ZNSt10_List_nodeIlE9_M_valptrEv
	movq	%rax, -8(%rbp)
	movq	-40(%rbp), %rax
	movq	%rax, %rdi
	call	_ZNSt7__cxx1110_List_baseIlSaIlEE21_M_get_Node_allocatorEv
	movq	%rax, %rdx
	movq	-8(%rbp), %rax
	movq	%rax, %rsi
	movq	%rdx, %rdi
	call	_ZNSt16allocator_traitsISaISt10_List_nodeIlEEE7destroyIlEEvRS2_PT_
	movq	-16(%rbp), %rdx
	movq	-40(%rbp), %rax
	movq	%rdx, %rsi
	movq	%rax, %rdi
	call	_ZNSt7__cxx1110_List_baseIlSaIlEE11_M_put_nodeEPSt10_List_nodeIlE
	jmp	.L159
.L160:
	nop
	leave
	.cfi_def_cfa 7, 8
	ret
	.cfi_endproc
.LFE2977:
	.size	_ZNSt7__cxx1110_List_baseIlSaIlEE8_M_clearEv, .-_ZNSt7__cxx1110_List_baseIlSaIlEE8_M_clearEv
	.section	.text._ZN9__gnu_cxx17__normal_iteratorIPlSt6vectorIlSaIlEEEC2ERKS1_,"axG",@progbits,_ZN9__gnu_cxx17__normal_iteratorIPlSt6vectorIlSaIlEEEC5ERKS1_,comdat
	.align 2
	.weak	_ZN9__gnu_cxx17__normal_iteratorIPlSt6vectorIlSaIlEEEC2ERKS1_
	.type	_ZN9__gnu_cxx17__normal_iteratorIPlSt6vectorIlSaIlEEEC2ERKS1_, @function
_ZN9__gnu_cxx17__normal_iteratorIPlSt6vectorIlSaIlEEEC2ERKS1_:
.LFB2979:
	.cfi_startproc
	endbr64
	pushq	%rbp
	.cfi_def_cfa_offset 16
	.cfi_offset 6, -16
	movq	%rsp, %rbp
	.cfi_def_cfa_register 6
	movq	%rdi, -8(%rbp)
	movq	%rsi, -16(%rbp)
	movq	-16(%rbp), %rax
	movq	(%rax), %rdx
	movq	-8(%rbp), %rax
	movq	%rdx, (%rax)
	nop
	popq	%rbp
	.cfi_def_cfa 7, 8
	ret
	.cfi_endproc
.LFE2979:
	.size	_ZN9__gnu_cxx17__normal_iteratorIPlSt6vectorIlSaIlEEEC2ERKS1_, .-_ZN9__gnu_cxx17__normal_iteratorIPlSt6vectorIlSaIlEEEC2ERKS1_
	.weak	_ZN9__gnu_cxx17__normal_iteratorIPlSt6vectorIlSaIlEEEC1ERKS1_
	.set	_ZN9__gnu_cxx17__normal_iteratorIPlSt6vectorIlSaIlEEEC1ERKS1_,_ZN9__gnu_cxx17__normal_iteratorIPlSt6vectorIlSaIlEEEC2ERKS1_
	.section	.text._ZNK9__gnu_cxx17__normal_iteratorIPlSt6vectorIlSaIlEEE4baseEv,"axG",@progbits,_ZNK9__gnu_cxx17__normal_iteratorIPlSt6vectorIlSaIlEEE4baseEv,comdat
	.align 2
	.weak	_ZNK9__gnu_cxx17__normal_iteratorIPlSt6vectorIlSaIlEEE4baseEv
	.type	_ZNK9__gnu_cxx17__normal_iteratorIPlSt6vectorIlSaIlEEE4baseEv, @function
_ZNK9__gnu_cxx17__normal_iteratorIPlSt6vectorIlSaIlEEE4baseEv:
.LFB2981:
	.cfi_startproc
	endbr64
	pushq	%rbp
	.cfi_def_cfa_offset 16
	.cfi_offset 6, -16
	movq	%rsp, %rbp
	.cfi_def_cfa_register 6
	movq	%rdi, -8(%rbp)
	movq	-8(%rbp), %rax
	popq	%rbp
	.cfi_def_cfa 7, 8
	ret
	.cfi_endproc
.LFE2981:
	.size	_ZNK9__gnu_cxx17__normal_iteratorIPlSt6vectorIlSaIlEEE4baseEv, .-_ZNK9__gnu_cxx17__normal_iteratorIPlSt6vectorIlSaIlEEE4baseEv
	.section	.text._ZNKSt7__cxx114listIlSaIlEE13_M_node_countEv,"axG",@progbits,_ZNKSt7__cxx114listIlSaIlEE13_M_node_countEv,comdat
	.align 2
	.weak	_ZNKSt7__cxx114listIlSaIlEE13_M_node_countEv
	.type	_ZNKSt7__cxx114listIlSaIlEE13_M_node_countEv, @function
_ZNKSt7__cxx114listIlSaIlEE13_M_node_countEv:
.LFB2982:
	.cfi_startproc
	endbr64
	pushq	%rbp
	.cfi_def_cfa_offset 16
	.cfi_offset 6, -16
	movq	%rsp, %rbp
	.cfi_def_cfa_register 6
	subq	$16, %rsp
	movq	%rdi, -8(%rbp)
	movq	-8(%rbp), %rax
	movq	%rax, %rdi
	call	_ZNKSt7__cxx1110_List_baseIlSaIlEE11_M_get_sizeEv
	leave
	.cfi_def_cfa 7, 8
	ret
	.cfi_endproc
.LFE2982:
	.size	_ZNKSt7__cxx114listIlSaIlEE13_M_node_countEv, .-_ZNKSt7__cxx114listIlSaIlEE13_M_node_countEv
	.section	.text._ZNSt7__cxx114listIlSaIlEE9_M_insertIJRKlEEEvSt14_List_iteratorIlEDpOT_,"axG",@progbits,_ZNSt7__cxx114listIlSaIlEE9_M_insertIJRKlEEEvSt14_List_iteratorIlEDpOT_,comdat
	.align 2
	.weak	_ZNSt7__cxx114listIlSaIlEE9_M_insertIJRKlEEEvSt14_List_iteratorIlEDpOT_
	.type	_ZNSt7__cxx114listIlSaIlEE9_M_insertIJRKlEEEvSt14_List_iteratorIlEDpOT_, @function
_ZNSt7__cxx114listIlSaIlEE9_M_insertIJRKlEEEvSt14_List_iteratorIlEDpOT_:
.LFB2983:
	.cfi_startproc
	endbr64
	pushq	%rbp
	.cfi_def_cfa_offset 16
	.cfi_offset 6, -16
	movq	%rsp, %rbp
	.cfi_def_cfa_register 6
	subq	$48, %rsp
	movq	%rdi, -24(%rbp)
	movq	%rsi, -32(%rbp)
	movq	%rdx, -40(%rbp)
	movq	-40(%rbp), %rax
	movq	%rax, %rdi
	call	_ZSt7forwardIRKlEOT_RNSt16remove_referenceIS2_E4typeE
	movq	%rax, %rdx
	movq	-24(%rbp), %rax
	movq	%rdx, %rsi
	movq	%rax, %rdi
	call	_ZNSt7__cxx114listIlSaIlEE14_M_create_nodeIJRKlEEEPSt10_List_nodeIlEDpOT_
	movq	%rax, -8(%rbp)
	movq	-8(%rbp), %rax
	movq	-32(%rbp), %rdx
	movq	%rdx, %rsi
	movq	%rax, %rdi
	call	_ZNSt8__detail15_List_node_base7_M_hookEPS0_@PLT
	movq	-24(%rbp), %rax
	movl	$1, %esi
	movq	%rax, %rdi
	call	_ZNSt7__cxx1110_List_baseIlSaIlEE11_M_inc_sizeEm
	nop
	leave
	.cfi_def_cfa 7, 8
	ret
	.cfi_endproc
.LFE2983:
	.size	_ZNSt7__cxx114listIlSaIlEE9_M_insertIJRKlEEEvSt14_List_iteratorIlEDpOT_, .-_ZNSt7__cxx114listIlSaIlEE9_M_insertIJRKlEEEvSt14_List_iteratorIlEDpOT_
	.section	.text._ZNSt14_List_iteratorIlEC2EPNSt8__detail15_List_node_baseE,"axG",@progbits,_ZNSt14_List_iteratorIlEC5EPNSt8__detail15_List_node_baseE,comdat
	.align 2
	.weak	_ZNSt14_List_iteratorIlEC2EPNSt8__detail15_List_node_baseE
	.type	_ZNSt14_List_iteratorIlEC2EPNSt8__detail15_List_node_baseE, @function
_ZNSt14_List_iteratorIlEC2EPNSt8__detail15_List_node_baseE:
.LFB2985:
	.cfi_startproc
	endbr64
	pushq	%rbp
	.cfi_def_cfa_offset 16
	.cfi_offset 6, -16
	movq	%rsp, %rbp
	.cfi_def_cfa_register 6
	movq	%rdi, -8(%rbp)
	movq	%rsi, -16(%rbp)
	movq	-8(%rbp), %rax
	movq	-16(%rbp), %rdx
	movq	%rdx, (%rax)
	nop
	popq	%rbp
	.cfi_def_cfa 7, 8
	ret
	.cfi_endproc
.LFE2985:
	.size	_ZNSt14_List_iteratorIlEC2EPNSt8__detail15_List_node_baseE, .-_ZNSt14_List_iteratorIlEC2EPNSt8__detail15_List_node_baseE
	.weak	_ZNSt14_List_iteratorIlEC1EPNSt8__detail15_List_node_baseE
	.set	_ZNSt14_List_iteratorIlEC1EPNSt8__detail15_List_node_baseE,_ZNSt14_List_iteratorIlEC2EPNSt8__detail15_List_node_baseE
	.section	.text._ZNSt10_List_nodeIlE9_M_valptrEv,"axG",@progbits,_ZNSt10_List_nodeIlE9_M_valptrEv,comdat
	.align 2
	.weak	_ZNSt10_List_nodeIlE9_M_valptrEv
	.type	_ZNSt10_List_nodeIlE9_M_valptrEv, @function
_ZNSt10_List_nodeIlE9_M_valptrEv:
.LFB2987:
	.cfi_startproc
	endbr64
	pushq	%rbp
	.cfi_def_cfa_offset 16
	.cfi_offset 6, -16
	movq	%rsp, %rbp
	.cfi_def_cfa_register 6
	subq	$16, %rsp
	movq	%rdi, -8(%rbp)
	movq	-8(%rbp), %rax
	addq	$16, %rax
	movq	%rax, %rdi
	call	_ZN9__gnu_cxx16__aligned_membufIlE6_M_ptrEv
	leave
	.cfi_def_cfa 7, 8
	ret
	.cfi_endproc
.LFE2987:
	.size	_ZNSt10_List_nodeIlE9_M_valptrEv, .-_ZNSt10_List_nodeIlE9_M_valptrEv
	.section	.text._ZNSt16allocator_traitsISaIlEE9constructIlJRKlEEEvRS0_PT_DpOT0_,"axG",@progbits,_ZNSt16allocator_traitsISaIlEE9constructIlJRKlEEEvRS0_PT_DpOT0_,comdat
	.weak	_ZNSt16allocator_traitsISaIlEE9constructIlJRKlEEEvRS0_PT_DpOT0_
	.type	_ZNSt16allocator_traitsISaIlEE9constructIlJRKlEEEvRS0_PT_DpOT0_, @function
_ZNSt16allocator_traitsISaIlEE9constructIlJRKlEEEvRS0_PT_DpOT0_:
.LFB2988:
	.cfi_startproc
	endbr64
	pushq	%rbp
	.cfi_def_cfa_offset 16
	.cfi_offset 6, -16
	movq	%rsp, %rbp
	.cfi_def_cfa_register 6
	subq	$32, %rsp
	movq	%rdi, -8(%rbp)
	movq	%rsi, -16(%rbp)
	movq	%rdx, -24(%rbp)
	movq	-24(%rbp), %rax
	movq	%rax, %rdi
	call	_ZSt7forwardIRKlEOT_RNSt16remove_referenceIS2_E4typeE
	movq	%rax, %rdx
	movq	-16(%rbp), %rcx
	movq	-8(%rbp), %rax
	movq	%rcx, %rsi
	movq	%rax, %rdi
	call	_ZN9__gnu_cxx13new_allocatorIlE9constructIlJRKlEEEvPT_DpOT0_
	nop
	leave
	.cfi_def_cfa 7, 8
	ret
	.cfi_endproc
.LFE2988:
	.size	_ZNSt16allocator_traitsISaIlEE9constructIlJRKlEEEvRS0_PT_DpOT0_, .-_ZNSt16allocator_traitsISaIlEE9constructIlJRKlEEEvRS0_PT_DpOT0_
	.section	.text._ZNSt6vectorIlSaIlEE15_S_use_relocateEv,"axG",@progbits,_ZNSt6vectorIlSaIlEE15_S_use_relocateEv,comdat
	.weak	_ZNSt6vectorIlSaIlEE15_S_use_relocateEv
	.type	_ZNSt6vectorIlSaIlEE15_S_use_relocateEv, @function
_ZNSt6vectorIlSaIlEE15_S_use_relocateEv:
.LFB2990:
	.cfi_startproc
	endbr64
	pushq	%rbp
	.cfi_def_cfa_offset 16
	.cfi_offset 6, -16
	movq	%rsp, %rbp
	.cfi_def_cfa_register 6
	subq	$16, %rsp
	movq	%fs:40, %rax
	movq	%rax, -8(%rbp)
	xorl	%eax, %eax
	call	_ZNSt6vectorIlSaIlEE19_S_nothrow_relocateESt17integral_constantIbLb1EE
	movq	-8(%rbp), %rdx
	xorq	%fs:40, %rdx
	je	.L173
	call	__stack_chk_fail@PLT
.L173:
	leave
	.cfi_def_cfa 7, 8
	ret
	.cfi_endproc
.LFE2990:
	.size	_ZNSt6vectorIlSaIlEE15_S_use_relocateEv, .-_ZNSt6vectorIlSaIlEE15_S_use_relocateEv
	.section	.text._ZNSt6vectorIlSaIlEE19_S_nothrow_relocateESt17integral_constantIbLb1EE,"axG",@progbits,_ZNSt6vectorIlSaIlEE19_S_nothrow_relocateESt17integral_constantIbLb1EE,comdat
	.weak	_ZNSt6vectorIlSaIlEE19_S_nothrow_relocateESt17integral_constantIbLb1EE
	.type	_ZNSt6vectorIlSaIlEE19_S_nothrow_relocateESt17integral_constantIbLb1EE, @function
_ZNSt6vectorIlSaIlEE19_S_nothrow_relocateESt17integral_constantIbLb1EE:
.LFB2991:
	.cfi_startproc
	endbr64
	pushq	%rbp
	.cfi_def_cfa_offset 16
	.cfi_offset 6, -16
	movq	%rsp, %rbp
	.cfi_def_cfa_register 6
	movl	$1, %eax
	popq	%rbp
	.cfi_def_cfa 7, 8
	ret
	.cfi_endproc
.LFE2991:
	.size	_ZNSt6vectorIlSaIlEE19_S_nothrow_relocateESt17integral_constantIbLb1EE, .-_ZNSt6vectorIlSaIlEE19_S_nothrow_relocateESt17integral_constantIbLb1EE
	.section	.rodata
.LC12:
	.string	"vector::_M_realloc_insert"
	.section	.text._ZNSt6vectorIlSaIlEE17_M_realloc_insertIJRKlEEEvN9__gnu_cxx17__normal_iteratorIPlS1_EEDpOT_,"axG",@progbits,_ZNSt6vectorIlSaIlEE17_M_realloc_insertIJRKlEEEvN9__gnu_cxx17__normal_iteratorIPlS1_EEDpOT_,comdat
	.align 2
	.weak	_ZNSt6vectorIlSaIlEE17_M_realloc_insertIJRKlEEEvN9__gnu_cxx17__normal_iteratorIPlS1_EEDpOT_
	.type	_ZNSt6vectorIlSaIlEE17_M_realloc_insertIJRKlEEEvN9__gnu_cxx17__normal_iteratorIPlS1_EEDpOT_, @function
_ZNSt6vectorIlSaIlEE17_M_realloc_insertIJRKlEEEvN9__gnu_cxx17__normal_iteratorIPlS1_EEDpOT_:
.LFB2989:
	.cfi_startproc
	.cfi_personality 0x9b,DW.ref.__gxx_personality_v0
	.cfi_lsda 0x1b,.LLSDA2989
	endbr64
	pushq	%rbp
	.cfi_def_cfa_offset 16
	.cfi_offset 6, -16
	movq	%rsp, %rbp
	.cfi_def_cfa_register 6
	pushq	%rbx
	subq	$104, %rsp
	.cfi_offset 3, -24
	movq	%rdi, -88(%rbp)
	movq	%rsi, -96(%rbp)
	movq	%rdx, -104(%rbp)
	movq	%fs:40, %rax
	movq	%rax, -24(%rbp)
	xorl	%eax, %eax
	movq	-88(%rbp), %rax
	leaq	.LC12(%rip), %rdx
	movl	$1, %esi
	movq	%rax, %rdi
.LEHB4:
	call	_ZNKSt6vectorIlSaIlEE12_M_check_lenEmPKc
	movq	%rax, -64(%rbp)
	movq	-88(%rbp), %rax
	movq	(%rax), %rax
	movq	%rax, -56(%rbp)
	movq	-88(%rbp), %rax
	movq	8(%rax), %rax
	movq	%rax, -48(%rbp)
	movq	-88(%rbp), %rax
	movq	%rax, %rdi
	call	_ZNSt6vectorIlSaIlEE5beginEv
	movq	%rax, -80(%rbp)
	leaq	-80(%rbp), %rdx
	leaq	-96(%rbp), %rax
	movq	%rdx, %rsi
	movq	%rax, %rdi
	call	_ZN9__gnu_cxxmiIPlSt6vectorIlSaIlEEEENS_17__normal_iteratorIT_T0_E15difference_typeERKS8_SB_
	movq	%rax, -40(%rbp)
	movq	-88(%rbp), %rax
	movq	-64(%rbp), %rdx
	movq	%rdx, %rsi
	movq	%rax, %rdi
	call	_ZNSt12_Vector_baseIlSaIlEE11_M_allocateEm
.LEHE4:
	movq	%rax, -32(%rbp)
	movq	-32(%rbp), %rax
	movq	%rax, -72(%rbp)
	movq	-104(%rbp), %rax
	movq	%rax, %rdi
	call	_ZSt7forwardIRKlEOT_RNSt16remove_referenceIS2_E4typeE
	movq	%rax, %rdx
	movq	-40(%rbp), %rax
	leaq	0(,%rax,8), %rcx
	movq	-32(%rbp), %rax
	addq	%rax, %rcx
	movq	-88(%rbp), %rax
	movq	%rcx, %rsi
	movq	%rax, %rdi
	call	_ZNSt16allocator_traitsISaIlEE9constructIlJRKlEEEvRS0_PT_DpOT0_
	movq	$0, -72(%rbp)
	call	_ZNSt6vectorIlSaIlEE15_S_use_relocateEv
	testb	%al, %al
	je	.L177
	movq	-88(%rbp), %rax
	movq	%rax, %rdi
	call	_ZNSt12_Vector_baseIlSaIlEE19_M_get_Tp_allocatorEv
	movq	%rax, %rbx
	leaq	-96(%rbp), %rax
	movq	%rax, %rdi
	call	_ZNK9__gnu_cxx17__normal_iteratorIPlSt6vectorIlSaIlEEE4baseEv
	movq	(%rax), %rsi
	movq	-32(%rbp), %rdx
	movq	-56(%rbp), %rax
	movq	%rbx, %rcx
	movq	%rax, %rdi
	call	_ZNSt6vectorIlSaIlEE11_S_relocateEPlS2_S2_RS0_
	movq	%rax, -72(%rbp)
	addq	$8, -72(%rbp)
	movq	-88(%rbp), %rax
	movq	%rax, %rdi
	call	_ZNSt12_Vector_baseIlSaIlEE19_M_get_Tp_allocatorEv
	movq	%rax, %rbx
	leaq	-96(%rbp), %rax
	movq	%rax, %rdi
	call	_ZNK9__gnu_cxx17__normal_iteratorIPlSt6vectorIlSaIlEEE4baseEv
	movq	(%rax), %rax
	movq	-72(%rbp), %rdx
	movq	-48(%rbp), %rsi
	movq	%rbx, %rcx
	movq	%rax, %rdi
	call	_ZNSt6vectorIlSaIlEE11_S_relocateEPlS2_S2_RS0_
	movq	%rax, -72(%rbp)
	jmp	.L178
.L177:
	movq	-88(%rbp), %rax
	movq	%rax, %rdi
	call	_ZNSt12_Vector_baseIlSaIlEE19_M_get_Tp_allocatorEv
	movq	%rax, %rbx
	leaq	-96(%rbp), %rax
	movq	%rax, %rdi
	call	_ZNK9__gnu_cxx17__normal_iteratorIPlSt6vectorIlSaIlEEE4baseEv
	movq	(%rax), %rsi
	movq	-32(%rbp), %rdx
	movq	-56(%rbp), %rax
	movq	%rbx, %rcx
	movq	%rax, %rdi
.LEHB5:
	call	_ZSt34__uninitialized_move_if_noexcept_aIPlS0_SaIlEET0_T_S3_S2_RT1_
	movq	%rax, -72(%rbp)
	addq	$8, -72(%rbp)
	movq	-88(%rbp), %rax
	movq	%rax, %rdi
	call	_ZNSt12_Vector_baseIlSaIlEE19_M_get_Tp_allocatorEv
	movq	%rax, %rbx
	leaq	-96(%rbp), %rax
	movq	%rax, %rdi
	call	_ZNK9__gnu_cxx17__normal_iteratorIPlSt6vectorIlSaIlEEE4baseEv
	movq	(%rax), %rax
	movq	-72(%rbp), %rdx
	movq	-48(%rbp), %rsi
	movq	%rbx, %rcx
	movq	%rax, %rdi
	call	_ZSt34__uninitialized_move_if_noexcept_aIPlS0_SaIlEET0_T_S3_S2_RT1_
.LEHE5:
	movq	%rax, -72(%rbp)
.L178:
	call	_ZNSt6vectorIlSaIlEE15_S_use_relocateEv
	xorl	$1, %eax
	testb	%al, %al
	je	.L179
	movq	-88(%rbp), %rax
	movq	%rax, %rdi
	call	_ZNSt12_Vector_baseIlSaIlEE19_M_get_Tp_allocatorEv
	movq	%rax, %rdx
	movq	-48(%rbp), %rcx
	movq	-56(%rbp), %rax
	movq	%rcx, %rsi
	movq	%rax, %rdi
.LEHB6:
	call	_ZSt8_DestroyIPllEvT_S1_RSaIT0_E
.L179:
	movq	-88(%rbp), %rax
	movq	-88(%rbp), %rdx
	movq	16(%rdx), %rdx
	subq	-56(%rbp), %rdx
	sarq	$3, %rdx
	movq	-56(%rbp), %rcx
	movq	%rcx, %rsi
	movq	%rax, %rdi
	call	_ZNSt12_Vector_baseIlSaIlEE13_M_deallocateEPlm
.LEHE6:
	movq	-88(%rbp), %rax
	movq	-32(%rbp), %rdx
	movq	%rdx, (%rax)
	movq	-88(%rbp), %rax
	movq	-72(%rbp), %rdx
	movq	%rdx, 8(%rax)
	movq	-64(%rbp), %rax
	leaq	0(,%rax,8), %rdx
	movq	-32(%rbp), %rax
	addq	%rax, %rdx
	movq	-88(%rbp), %rax
	movq	%rdx, 16(%rax)
	nop
	movq	-24(%rbp), %rax
	xorq	%fs:40, %rax
	je	.L184
	jmp	.L187
.L185:
	endbr64
	movq	%rax, %rdi
	call	__cxa_begin_catch@PLT
	cmpq	$0, -72(%rbp)
	jne	.L181
	movq	-40(%rbp), %rax
	leaq	0(,%rax,8), %rdx
	movq	-32(%rbp), %rax
	addq	%rax, %rdx
	movq	-88(%rbp), %rax
	movq	%rdx, %rsi
	movq	%rax, %rdi
	call	_ZNSt16allocator_traitsISaIlEE7destroyIlEEvRS0_PT_
	jmp	.L182
.L181:
	movq	-88(%rbp), %rax
	movq	%rax, %rdi
	call	_ZNSt12_Vector_baseIlSaIlEE19_M_get_Tp_allocatorEv
	movq	%rax, %rdx
	movq	-72(%rbp), %rcx
	movq	-32(%rbp), %rax
	movq	%rcx, %rsi
	movq	%rax, %rdi
.LEHB7:
	call	_ZSt8_DestroyIPllEvT_S1_RSaIT0_E
.L182:
	movq	-88(%rbp), %rax
	movq	-64(%rbp), %rdx
	movq	-32(%rbp), %rcx
	movq	%rcx, %rsi
	movq	%rax, %rdi
	call	_ZNSt12_Vector_baseIlSaIlEE13_M_deallocateEPlm
	call	__cxa_rethrow@PLT
.LEHE7:
.L186:
	endbr64
	movq	%rax, %rbx
	call	__cxa_end_catch@PLT
	movq	%rbx, %rax
	movq	%rax, %rdi
.LEHB8:
	call	_Unwind_Resume@PLT
.LEHE8:
.L187:
	call	__stack_chk_fail@PLT
.L184:
	addq	$104, %rsp
	popq	%rbx
	popq	%rbp
	.cfi_def_cfa 7, 8
	ret
	.cfi_endproc
.LFE2989:
	.section	.gcc_except_table
	.align 4
.LLSDA2989:
	.byte	0xff
	.byte	0x9b
	.uleb128 .LLSDATT2989-.LLSDATTD2989
.LLSDATTD2989:
	.byte	0x1
	.uleb128 .LLSDACSE2989-.LLSDACSB2989
.LLSDACSB2989:
	.uleb128 .LEHB4-.LFB2989
	.uleb128 .LEHE4-.LEHB4
	.uleb128 0
	.uleb128 0
	.uleb128 .LEHB5-.LFB2989
	.uleb128 .LEHE5-.LEHB5
	.uleb128 .L185-.LFB2989
	.uleb128 0x1
	.uleb128 .LEHB6-.LFB2989
	.uleb128 .LEHE6-.LEHB6
	.uleb128 0
	.uleb128 0
	.uleb128 .LEHB7-.LFB2989
	.uleb128 .LEHE7-.LEHB7
	.uleb128 .L186-.LFB2989
	.uleb128 0
	.uleb128 .LEHB8-.LFB2989
	.uleb128 .LEHE8-.LEHB8
	.uleb128 0
	.uleb128 0
.LLSDACSE2989:
	.byte	0x1
	.byte	0
	.align 4
	.long	0

.LLSDATT2989:
	.section	.text._ZNSt6vectorIlSaIlEE17_M_realloc_insertIJRKlEEEvN9__gnu_cxx17__normal_iteratorIPlS1_EEDpOT_,"axG",@progbits,_ZNSt6vectorIlSaIlEE17_M_realloc_insertIJRKlEEEvN9__gnu_cxx17__normal_iteratorIPlS1_EEDpOT_,comdat
	.size	_ZNSt6vectorIlSaIlEE17_M_realloc_insertIJRKlEEEvN9__gnu_cxx17__normal_iteratorIPlS1_EEDpOT_, .-_ZNSt6vectorIlSaIlEE17_M_realloc_insertIJRKlEEEvN9__gnu_cxx17__normal_iteratorIPlS1_EEDpOT_
	.section	.text._ZNSt7__cxx114listIlSaIlEE8_M_eraseESt14_List_iteratorIlE,"axG",@progbits,_ZNSt7__cxx114listIlSaIlEE8_M_eraseESt14_List_iteratorIlE,comdat
	.align 2
	.weak	_ZNSt7__cxx114listIlSaIlEE8_M_eraseESt14_List_iteratorIlE
	.type	_ZNSt7__cxx114listIlSaIlEE8_M_eraseESt14_List_iteratorIlE, @function
_ZNSt7__cxx114listIlSaIlEE8_M_eraseESt14_List_iteratorIlE:
.LFB2992:
	.cfi_startproc
	endbr64
	pushq	%rbp
	.cfi_def_cfa_offset 16
	.cfi_offset 6, -16
	movq	%rsp, %rbp
	.cfi_def_cfa_register 6
	pushq	%rbx
	subq	$40, %rsp
	.cfi_offset 3, -24
	movq	%rdi, -40(%rbp)
	movq	%rsi, -48(%rbp)
	movq	-40(%rbp), %rax
	movl	$1, %esi
	movq	%rax, %rdi
	call	_ZNSt7__cxx1110_List_baseIlSaIlEE11_M_dec_sizeEm
	movq	-48(%rbp), %rax
	movq	%rax, %rdi
	call	_ZNSt8__detail15_List_node_base9_M_unhookEv@PLT
	movq	-48(%rbp), %rax
	movq	%rax, -24(%rbp)
	movq	-24(%rbp), %rax
	movq	%rax, %rdi
	call	_ZNSt10_List_nodeIlE9_M_valptrEv
	movq	%rax, %rbx
	movq	-40(%rbp), %rax
	movq	%rax, %rdi
	call	_ZNSt7__cxx1110_List_baseIlSaIlEE21_M_get_Node_allocatorEv
	movq	%rbx, %rsi
	movq	%rax, %rdi
	call	_ZNSt16allocator_traitsISaISt10_List_nodeIlEEE7destroyIlEEvRS2_PT_
	movq	-40(%rbp), %rax
	movq	-24(%rbp), %rdx
	movq	%rdx, %rsi
	movq	%rax, %rdi
	call	_ZNSt7__cxx1110_List_baseIlSaIlEE11_M_put_nodeEPSt10_List_nodeIlE
	nop
	addq	$40, %rsp
	popq	%rbx
	popq	%rbp
	.cfi_def_cfa 7, 8
	ret
	.cfi_endproc
.LFE2992:
	.size	_ZNSt7__cxx114listIlSaIlEE8_M_eraseESt14_List_iteratorIlE, .-_ZNSt7__cxx114listIlSaIlEE8_M_eraseESt14_List_iteratorIlE
	.section	.text._ZNSaISt10_List_nodeIcEEC2Ev,"axG",@progbits,_ZNSaISt10_List_nodeIcEEC5Ev,comdat
	.align 2
	.weak	_ZNSaISt10_List_nodeIcEEC2Ev
	.type	_ZNSaISt10_List_nodeIcEEC2Ev, @function
_ZNSaISt10_List_nodeIcEEC2Ev:
.LFB2994:
	.cfi_startproc
	endbr64
	pushq	%rbp
	.cfi_def_cfa_offset 16
	.cfi_offset 6, -16
	movq	%rsp, %rbp
	.cfi_def_cfa_register 6
	subq	$16, %rsp
	movq	%rdi, -8(%rbp)
	movq	-8(%rbp), %rax
	movq	%rax, %rdi
	call	_ZN9__gnu_cxx13new_allocatorISt10_List_nodeIcEEC2Ev
	nop
	leave
	.cfi_def_cfa 7, 8
	ret
	.cfi_endproc
.LFE2994:
	.size	_ZNSaISt10_List_nodeIcEEC2Ev, .-_ZNSaISt10_List_nodeIcEEC2Ev
	.weak	_ZNSaISt10_List_nodeIcEEC1Ev
	.set	_ZNSaISt10_List_nodeIcEEC1Ev,_ZNSaISt10_List_nodeIcEEC2Ev
	.section	.text._ZN9__gnu_cxx13new_allocatorISt10_List_nodeIcEED2Ev,"axG",@progbits,_ZN9__gnu_cxx13new_allocatorISt10_List_nodeIcEED5Ev,comdat
	.align 2
	.weak	_ZN9__gnu_cxx13new_allocatorISt10_List_nodeIcEED2Ev
	.type	_ZN9__gnu_cxx13new_allocatorISt10_List_nodeIcEED2Ev, @function
_ZN9__gnu_cxx13new_allocatorISt10_List_nodeIcEED2Ev:
.LFB2997:
	.cfi_startproc
	endbr64
	pushq	%rbp
	.cfi_def_cfa_offset 16
	.cfi_offset 6, -16
	movq	%rsp, %rbp
	.cfi_def_cfa_register 6
	movq	%rdi, -8(%rbp)
	nop
	popq	%rbp
	.cfi_def_cfa 7, 8
	ret
	.cfi_endproc
.LFE2997:
	.size	_ZN9__gnu_cxx13new_allocatorISt10_List_nodeIcEED2Ev, .-_ZN9__gnu_cxx13new_allocatorISt10_List_nodeIcEED2Ev
	.weak	_ZN9__gnu_cxx13new_allocatorISt10_List_nodeIcEED1Ev
	.set	_ZN9__gnu_cxx13new_allocatorISt10_List_nodeIcEED1Ev,_ZN9__gnu_cxx13new_allocatorISt10_List_nodeIcEED2Ev
	.section	.text._ZNSt7__cxx1110_List_baseIcSaIcEE8_M_clearEv,"axG",@progbits,_ZNSt7__cxx1110_List_baseIcSaIcEE8_M_clearEv,comdat
	.align 2
	.weak	_ZNSt7__cxx1110_List_baseIcSaIcEE8_M_clearEv
	.type	_ZNSt7__cxx1110_List_baseIcSaIcEE8_M_clearEv, @function
_ZNSt7__cxx1110_List_baseIcSaIcEE8_M_clearEv:
.LFB2999:
	.cfi_startproc
	endbr64
	pushq	%rbp
	.cfi_def_cfa_offset 16
	.cfi_offset 6, -16
	movq	%rsp, %rbp
	.cfi_def_cfa_register 6
	subq	$48, %rsp
	movq	%rdi, -40(%rbp)
	movq	-40(%rbp), %rax
	movq	(%rax), %rax
	movq	%rax, -24(%rbp)
.L193:
	movq	-40(%rbp), %rax
	cmpq	%rax, -24(%rbp)
	je	.L194
	movq	-24(%rbp), %rax
	movq	%rax, -16(%rbp)
	movq	-16(%rbp), %rax
	movq	(%rax), %rax
	movq	%rax, -24(%rbp)
	movq	-16(%rbp), %rax
	movq	%rax, %rdi
	call	_ZNSt10_List_nodeIcE9_M_valptrEv
	movq	%rax, -8(%rbp)
	movq	-40(%rbp), %rax
	movq	%rax, %rdi
	call	_ZNSt7__cxx1110_List_baseIcSaIcEE21_M_get_Node_allocatorEv
	movq	%rax, %rdx
	movq	-8(%rbp), %rax
	movq	%rax, %rsi
	movq	%rdx, %rdi
	call	_ZNSt16allocator_traitsISaISt10_List_nodeIcEEE7destroyIcEEvRS2_PT_
	movq	-16(%rbp), %rdx
	movq	-40(%rbp), %rax
	movq	%rdx, %rsi
	movq	%rax, %rdi
	call	_ZNSt7__cxx1110_List_baseIcSaIcEE11_M_put_nodeEPSt10_List_nodeIcE
	jmp	.L193
.L194:
	nop
	leave
	.cfi_def_cfa 7, 8
	ret
	.cfi_endproc
.LFE2999:
	.size	_ZNSt7__cxx1110_List_baseIcSaIcEE8_M_clearEv, .-_ZNSt7__cxx1110_List_baseIcSaIcEE8_M_clearEv
	.section	.text._ZNSaIlEC2Ev,"axG",@progbits,_ZNSaIlEC5Ev,comdat
	.align 2
	.weak	_ZNSaIlEC2Ev
	.type	_ZNSaIlEC2Ev, @function
_ZNSaIlEC2Ev:
.LFB3001:
	.cfi_startproc
	endbr64
	pushq	%rbp
	.cfi_def_cfa_offset 16
	.cfi_offset 6, -16
	movq	%rsp, %rbp
	.cfi_def_cfa_register 6
	subq	$16, %rsp
	movq	%rdi, -8(%rbp)
	movq	-8(%rbp), %rax
	movq	%rax, %rdi
	call	_ZN9__gnu_cxx13new_allocatorIlEC2Ev
	nop
	leave
	.cfi_def_cfa 7, 8
	ret
	.cfi_endproc
.LFE3001:
	.size	_ZNSaIlEC2Ev, .-_ZNSaIlEC2Ev
	.weak	_ZNSaIlEC1Ev
	.set	_ZNSaIlEC1Ev,_ZNSaIlEC2Ev
	.section	.text._ZNSt12_Vector_baseIlSaIlEE17_Vector_impl_dataC2Ev,"axG",@progbits,_ZNSt12_Vector_baseIlSaIlEE17_Vector_impl_dataC5Ev,comdat
	.align 2
	.weak	_ZNSt12_Vector_baseIlSaIlEE17_Vector_impl_dataC2Ev
	.type	_ZNSt12_Vector_baseIlSaIlEE17_Vector_impl_dataC2Ev, @function
_ZNSt12_Vector_baseIlSaIlEE17_Vector_impl_dataC2Ev:
.LFB3004:
	.cfi_startproc
	endbr64
	pushq	%rbp
	.cfi_def_cfa_offset 16
	.cfi_offset 6, -16
	movq	%rsp, %rbp
	.cfi_def_cfa_register 6
	movq	%rdi, -8(%rbp)
	movq	-8(%rbp), %rax
	movq	$0, (%rax)
	movq	-8(%rbp), %rax
	movq	$0, 8(%rax)
	movq	-8(%rbp), %rax
	movq	$0, 16(%rax)
	nop
	popq	%rbp
	.cfi_def_cfa 7, 8
	ret
	.cfi_endproc
.LFE3004:
	.size	_ZNSt12_Vector_baseIlSaIlEE17_Vector_impl_dataC2Ev, .-_ZNSt12_Vector_baseIlSaIlEE17_Vector_impl_dataC2Ev
	.weak	_ZNSt12_Vector_baseIlSaIlEE17_Vector_impl_dataC1Ev
	.set	_ZNSt12_Vector_baseIlSaIlEE17_Vector_impl_dataC1Ev,_ZNSt12_Vector_baseIlSaIlEE17_Vector_impl_dataC2Ev
	.section	.text._ZN9__gnu_cxx13new_allocatorIlED2Ev,"axG",@progbits,_ZN9__gnu_cxx13new_allocatorIlED5Ev,comdat
	.align 2
	.weak	_ZN9__gnu_cxx13new_allocatorIlED2Ev
	.type	_ZN9__gnu_cxx13new_allocatorIlED2Ev, @function
_ZN9__gnu_cxx13new_allocatorIlED2Ev:
.LFB3007:
	.cfi_startproc
	endbr64
	pushq	%rbp
	.cfi_def_cfa_offset 16
	.cfi_offset 6, -16
	movq	%rsp, %rbp
	.cfi_def_cfa_register 6
	movq	%rdi, -8(%rbp)
	nop
	popq	%rbp
	.cfi_def_cfa 7, 8
	ret
	.cfi_endproc
.LFE3007:
	.size	_ZN9__gnu_cxx13new_allocatorIlED2Ev, .-_ZN9__gnu_cxx13new_allocatorIlED2Ev
	.weak	_ZN9__gnu_cxx13new_allocatorIlED1Ev
	.set	_ZN9__gnu_cxx13new_allocatorIlED1Ev,_ZN9__gnu_cxx13new_allocatorIlED2Ev
	.section	.text._ZNSt12_Vector_baseIlSaIlEE13_M_deallocateEPlm,"axG",@progbits,_ZNSt12_Vector_baseIlSaIlEE13_M_deallocateEPlm,comdat
	.align 2
	.weak	_ZNSt12_Vector_baseIlSaIlEE13_M_deallocateEPlm
	.type	_ZNSt12_Vector_baseIlSaIlEE13_M_deallocateEPlm, @function
_ZNSt12_Vector_baseIlSaIlEE13_M_deallocateEPlm:
.LFB3009:
	.cfi_startproc
	endbr64
	pushq	%rbp
	.cfi_def_cfa_offset 16
	.cfi_offset 6, -16
	movq	%rsp, %rbp
	.cfi_def_cfa_register 6
	subq	$32, %rsp
	movq	%rdi, -8(%rbp)
	movq	%rsi, -16(%rbp)
	movq	%rdx, -24(%rbp)
	cmpq	$0, -16(%rbp)
	je	.L200
	movq	-8(%rbp), %rax
	movq	-24(%rbp), %rdx
	movq	-16(%rbp), %rcx
	movq	%rcx, %rsi
	movq	%rax, %rdi
	call	_ZNSt16allocator_traitsISaIlEE10deallocateERS0_Plm
.L200:
	nop
	leave
	.cfi_def_cfa 7, 8
	ret
	.cfi_endproc
.LFE3009:
	.size	_ZNSt12_Vector_baseIlSaIlEE13_M_deallocateEPlm, .-_ZNSt12_Vector_baseIlSaIlEE13_M_deallocateEPlm
	.section	.text._ZNSt12_Vector_baseIlSaIlEE19_M_get_Tp_allocatorEv,"axG",@progbits,_ZNSt12_Vector_baseIlSaIlEE19_M_get_Tp_allocatorEv,comdat
	.align 2
	.weak	_ZNSt12_Vector_baseIlSaIlEE19_M_get_Tp_allocatorEv
	.type	_ZNSt12_Vector_baseIlSaIlEE19_M_get_Tp_allocatorEv, @function
_ZNSt12_Vector_baseIlSaIlEE19_M_get_Tp_allocatorEv:
.LFB3010:
	.cfi_startproc
	endbr64
	pushq	%rbp
	.cfi_def_cfa_offset 16
	.cfi_offset 6, -16
	movq	%rsp, %rbp
	.cfi_def_cfa_register 6
	movq	%rdi, -8(%rbp)
	movq	-8(%rbp), %rax
	popq	%rbp
	.cfi_def_cfa 7, 8
	ret
	.cfi_endproc
.LFE3010:
	.size	_ZNSt12_Vector_baseIlSaIlEE19_M_get_Tp_allocatorEv, .-_ZNSt12_Vector_baseIlSaIlEE19_M_get_Tp_allocatorEv
	.section	.text._ZSt8_DestroyIPllEvT_S1_RSaIT0_E,"axG",@progbits,_ZSt8_DestroyIPllEvT_S1_RSaIT0_E,comdat
	.weak	_ZSt8_DestroyIPllEvT_S1_RSaIT0_E
	.type	_ZSt8_DestroyIPllEvT_S1_RSaIT0_E, @function
_ZSt8_DestroyIPllEvT_S1_RSaIT0_E:
.LFB3011:
	.cfi_startproc
	endbr64
	pushq	%rbp
	.cfi_def_cfa_offset 16
	.cfi_offset 6, -16
	movq	%rsp, %rbp
	.cfi_def_cfa_register 6
	subq	$32, %rsp
	movq	%rdi, -8(%rbp)
	movq	%rsi, -16(%rbp)
	movq	%rdx, -24(%rbp)
	movq	-16(%rbp), %rdx
	movq	-8(%rbp), %rax
	movq	%rdx, %rsi
	movq	%rax, %rdi
	call	_ZSt8_DestroyIPlEvT_S1_
	nop
	leave
	.cfi_def_cfa 7, 8
	ret
	.cfi_endproc
.LFE3011:
	.size	_ZSt8_DestroyIPllEvT_S1_RSaIT0_E, .-_ZSt8_DestroyIPllEvT_S1_RSaIT0_E
	.section	.text._ZSt6__sortIN9__gnu_cxx17__normal_iteratorIPlSt6vectorIlSaIlEEEENS0_5__ops15_Iter_less_iterEEvT_S9_T0_,"axG",@progbits,_ZSt6__sortIN9__gnu_cxx17__normal_iteratorIPlSt6vectorIlSaIlEEEENS0_5__ops15_Iter_less_iterEEvT_S9_T0_,comdat
	.weak	_ZSt6__sortIN9__gnu_cxx17__normal_iteratorIPlSt6vectorIlSaIlEEEENS0_5__ops15_Iter_less_iterEEvT_S9_T0_
	.type	_ZSt6__sortIN9__gnu_cxx17__normal_iteratorIPlSt6vectorIlSaIlEEEENS0_5__ops15_Iter_less_iterEEvT_S9_T0_, @function
_ZSt6__sortIN9__gnu_cxx17__normal_iteratorIPlSt6vectorIlSaIlEEEENS0_5__ops15_Iter_less_iterEEvT_S9_T0_:
.LFB3012:
	.cfi_startproc
	endbr64
	pushq	%rbp
	.cfi_def_cfa_offset 16
	.cfi_offset 6, -16
	movq	%rsp, %rbp
	.cfi_def_cfa_register 6
	subq	$32, %rsp
	movq	%rdi, -8(%rbp)
	movq	%rsi, -16(%rbp)
	leaq	-16(%rbp), %rdx
	leaq	-8(%rbp), %rax
	movq	%rdx, %rsi
	movq	%rax, %rdi
	call	_ZN9__gnu_cxxneIPlSt6vectorIlSaIlEEEEbRKNS_17__normal_iteratorIT_T0_EESA_
	testb	%al, %al
	je	.L206
	leaq	-8(%rbp), %rdx
	leaq	-16(%rbp), %rax
	movq	%rdx, %rsi
	movq	%rax, %rdi
	call	_ZN9__gnu_cxxmiIPlSt6vectorIlSaIlEEEENS_17__normal_iteratorIT_T0_E15difference_typeERKS8_SB_
	movq	%rax, %rdi
	call	_ZSt4__lgl
	leaq	(%rax,%rax), %rdx
	movq	-16(%rbp), %rcx
	movq	-8(%rbp), %rax
	movq	%rcx, %rsi
	movq	%rax, %rdi
	call	_ZSt16__introsort_loopIN9__gnu_cxx17__normal_iteratorIPlSt6vectorIlSaIlEEEElNS0_5__ops15_Iter_less_iterEEvT_S9_T0_T1_
	movq	-16(%rbp), %rdx
	movq	-8(%rbp), %rax
	movq	%rdx, %rsi
	movq	%rax, %rdi
	call	_ZSt22__final_insertion_sortIN9__gnu_cxx17__normal_iteratorIPlSt6vectorIlSaIlEEEENS0_5__ops15_Iter_less_iterEEvT_S9_T0_
.L206:
	nop
	leave
	.cfi_def_cfa 7, 8
	ret
	.cfi_endproc
.LFE3012:
	.size	_ZSt6__sortIN9__gnu_cxx17__normal_iteratorIPlSt6vectorIlSaIlEEEENS0_5__ops15_Iter_less_iterEEvT_S9_T0_, .-_ZSt6__sortIN9__gnu_cxx17__normal_iteratorIPlSt6vectorIlSaIlEEEENS0_5__ops15_Iter_less_iterEEvT_S9_T0_
	.section	.text._ZNKSt7__cxx1110_List_baseIcSaIcEE11_M_get_sizeEv,"axG",@progbits,_ZNKSt7__cxx1110_List_baseIcSaIcEE11_M_get_sizeEv,comdat
	.align 2
	.weak	_ZNKSt7__cxx1110_List_baseIcSaIcEE11_M_get_sizeEv
	.type	_ZNKSt7__cxx1110_List_baseIcSaIcEE11_M_get_sizeEv, @function
_ZNKSt7__cxx1110_List_baseIcSaIcEE11_M_get_sizeEv:
.LFB3047:
	.cfi_startproc
	endbr64
	pushq	%rbp
	.cfi_def_cfa_offset 16
	.cfi_offset 6, -16
	movq	%rsp, %rbp
	.cfi_def_cfa_register 6
	movq	%rdi, -8(%rbp)
	movq	-8(%rbp), %rax
	movq	16(%rax), %rax
	popq	%rbp
	.cfi_def_cfa 7, 8
	ret
	.cfi_endproc
.LFE3047:
	.size	_ZNKSt7__cxx1110_List_baseIcSaIcEE11_M_get_sizeEv, .-_ZNKSt7__cxx1110_List_baseIcSaIcEE11_M_get_sizeEv
	.section	.text._ZN9__gnu_cxx16__aligned_membufIcE6_M_ptrEv,"axG",@progbits,_ZN9__gnu_cxx16__aligned_membufIcE6_M_ptrEv,comdat
	.align 2
	.weak	_ZN9__gnu_cxx16__aligned_membufIcE6_M_ptrEv
	.type	_ZN9__gnu_cxx16__aligned_membufIcE6_M_ptrEv, @function
_ZN9__gnu_cxx16__aligned_membufIcE6_M_ptrEv:
.LFB3048:
	.cfi_startproc
	endbr64
	pushq	%rbp
	.cfi_def_cfa_offset 16
	.cfi_offset 6, -16
	movq	%rsp, %rbp
	.cfi_def_cfa_register 6
	subq	$16, %rsp
	movq	%rdi, -8(%rbp)
	movq	-8(%rbp), %rax
	movq	%rax, %rdi
	call	_ZN9__gnu_cxx16__aligned_membufIcE7_M_addrEv
	leave
	.cfi_def_cfa 7, 8
	ret
	.cfi_endproc
.LFE3048:
	.size	_ZN9__gnu_cxx16__aligned_membufIcE6_M_ptrEv, .-_ZN9__gnu_cxx16__aligned_membufIcE6_M_ptrEv
	.section	.text._ZSt7forwardIRKcEOT_RNSt16remove_referenceIS2_E4typeE,"axG",@progbits,_ZSt7forwardIRKcEOT_RNSt16remove_referenceIS2_E4typeE,comdat
	.weak	_ZSt7forwardIRKcEOT_RNSt16remove_referenceIS2_E4typeE
	.type	_ZSt7forwardIRKcEOT_RNSt16remove_referenceIS2_E4typeE, @function
_ZSt7forwardIRKcEOT_RNSt16remove_referenceIS2_E4typeE:
.LFB3049:
	.cfi_startproc
	endbr64
	pushq	%rbp
	.cfi_def_cfa_offset 16
	.cfi_offset 6, -16
	movq	%rsp, %rbp
	.cfi_def_cfa_register 6
	movq	%rdi, -8(%rbp)
	movq	-8(%rbp), %rax
	popq	%rbp
	.cfi_def_cfa 7, 8
	ret
	.cfi_endproc
.LFE3049:
	.size	_ZSt7forwardIRKcEOT_RNSt16remove_referenceIS2_E4typeE, .-_ZSt7forwardIRKcEOT_RNSt16remove_referenceIS2_E4typeE
	.section	.text._ZNSt7__cxx114listIcSaIcEE14_M_create_nodeIJRKcEEEPSt10_List_nodeIcEDpOT_,"axG",@progbits,_ZNSt7__cxx114listIcSaIcEE14_M_create_nodeIJRKcEEEPSt10_List_nodeIcEDpOT_,comdat
	.align 2
	.weak	_ZNSt7__cxx114listIcSaIcEE14_M_create_nodeIJRKcEEEPSt10_List_nodeIcEDpOT_
	.type	_ZNSt7__cxx114listIcSaIcEE14_M_create_nodeIJRKcEEEPSt10_List_nodeIcEDpOT_, @function
_ZNSt7__cxx114listIcSaIcEE14_M_create_nodeIJRKcEEEPSt10_List_nodeIcEDpOT_:
.LFB3050:
	.cfi_startproc
	endbr64
	pushq	%rbp
	.cfi_def_cfa_offset 16
	.cfi_offset 6, -16
	movq	%rsp, %rbp
	.cfi_def_cfa_register 6
	pushq	%rbx
	subq	$72, %rsp
	.cfi_offset 3, -24
	movq	%rdi, -72(%rbp)
	movq	%rsi, -80(%rbp)
	movq	%fs:40, %rax
	movq	%rax, -24(%rbp)
	xorl	%eax, %eax
	movq	-72(%rbp), %rax
	movq	%rax, %rdi
	call	_ZNSt7__cxx1110_List_baseIcSaIcEE11_M_get_nodeEv
	movq	%rax, -64(%rbp)
	movq	-72(%rbp), %rax
	movq	%rax, %rdi
	call	_ZNSt7__cxx1110_List_baseIcSaIcEE21_M_get_Node_allocatorEv
	movq	%rax, -56(%rbp)
	movq	-64(%rbp), %rdx
	movq	-56(%rbp), %rcx
	leaq	-48(%rbp), %rax
	movq	%rcx, %rsi
	movq	%rax, %rdi
	call	_ZNSt15__allocated_ptrISaISt10_List_nodeIcEEEC1ERS2_PS1_
	movq	-80(%rbp), %rax
	movq	%rax, %rdi
	call	_ZSt7forwardIRKcEOT_RNSt16remove_referenceIS2_E4typeE
	movq	%rax, %rbx
	movq	-64(%rbp), %rax
	movq	%rax, %rdi
	call	_ZNSt10_List_nodeIcE9_M_valptrEv
	movq	%rax, %rcx
	movq	-56(%rbp), %rax
	movq	%rbx, %rdx
	movq	%rcx, %rsi
	movq	%rax, %rdi
	call	_ZNSt16allocator_traitsISaISt10_List_nodeIcEEE9constructIcJRKcEEEvRS2_PT_DpOT0_
	leaq	-48(%rbp), %rax
	movl	$0, %esi
	movq	%rax, %rdi
	call	_ZNSt15__allocated_ptrISaISt10_List_nodeIcEEEaSEDn
	movq	-64(%rbp), %rbx
	leaq	-48(%rbp), %rax
	movq	%rax, %rdi
	call	_ZNSt15__allocated_ptrISaISt10_List_nodeIcEEED1Ev
	movq	%rbx, %rax
	movq	-24(%rbp), %rdx
	xorq	%fs:40, %rdx
	je	.L215
	call	__stack_chk_fail@PLT
.L215:
	addq	$72, %rsp
	popq	%rbx
	popq	%rbp
	.cfi_def_cfa 7, 8
	ret
	.cfi_endproc
.LFE3050:
	.size	_ZNSt7__cxx114listIcSaIcEE14_M_create_nodeIJRKcEEEPSt10_List_nodeIcEDpOT_, .-_ZNSt7__cxx114listIcSaIcEE14_M_create_nodeIJRKcEEEPSt10_List_nodeIcEDpOT_
	.section	.text._ZNSt7__cxx1110_List_baseIcSaIcEE11_M_inc_sizeEm,"axG",@progbits,_ZNSt7__cxx1110_List_baseIcSaIcEE11_M_inc_sizeEm,comdat
	.align 2
	.weak	_ZNSt7__cxx1110_List_baseIcSaIcEE11_M_inc_sizeEm
	.type	_ZNSt7__cxx1110_List_baseIcSaIcEE11_M_inc_sizeEm, @function
_ZNSt7__cxx1110_List_baseIcSaIcEE11_M_inc_sizeEm:
.LFB3051:
	.cfi_startproc
	endbr64
	pushq	%rbp
	.cfi_def_cfa_offset 16
	.cfi_offset 6, -16
	movq	%rsp, %rbp
	.cfi_def_cfa_register 6
	movq	%rdi, -8(%rbp)
	movq	%rsi, -16(%rbp)
	movq	-8(%rbp), %rax
	movq	16(%rax), %rdx
	movq	-16(%rbp), %rax
	addq	%rax, %rdx
	movq	-8(%rbp), %rax
	movq	%rdx, 16(%rax)
	nop
	popq	%rbp
	.cfi_def_cfa 7, 8
	ret
	.cfi_endproc
.LFE3051:
	.size	_ZNSt7__cxx1110_List_baseIcSaIcEE11_M_inc_sizeEm, .-_ZNSt7__cxx1110_List_baseIcSaIcEE11_M_inc_sizeEm
	.section	.text._ZSt7forwardIlEOT_RNSt16remove_referenceIS0_E4typeE,"axG",@progbits,_ZSt7forwardIlEOT_RNSt16remove_referenceIS0_E4typeE,comdat
	.weak	_ZSt7forwardIlEOT_RNSt16remove_referenceIS0_E4typeE
	.type	_ZSt7forwardIlEOT_RNSt16remove_referenceIS0_E4typeE, @function
_ZSt7forwardIlEOT_RNSt16remove_referenceIS0_E4typeE:
.LFB3052:
	.cfi_startproc
	endbr64
	pushq	%rbp
	.cfi_def_cfa_offset 16
	.cfi_offset 6, -16
	movq	%rsp, %rbp
	.cfi_def_cfa_register 6
	movq	%rdi, -8(%rbp)
	movq	-8(%rbp), %rax
	popq	%rbp
	.cfi_def_cfa 7, 8
	ret
	.cfi_endproc
.LFE3052:
	.size	_ZSt7forwardIlEOT_RNSt16remove_referenceIS0_E4typeE, .-_ZSt7forwardIlEOT_RNSt16remove_referenceIS0_E4typeE
	.section	.text._ZNSt16allocator_traitsISaIlEE9constructIlJlEEEvRS0_PT_DpOT0_,"axG",@progbits,_ZNSt16allocator_traitsISaIlEE9constructIlJlEEEvRS0_PT_DpOT0_,comdat
	.weak	_ZNSt16allocator_traitsISaIlEE9constructIlJlEEEvRS0_PT_DpOT0_
	.type	_ZNSt16allocator_traitsISaIlEE9constructIlJlEEEvRS0_PT_DpOT0_, @function
_ZNSt16allocator_traitsISaIlEE9constructIlJlEEEvRS0_PT_DpOT0_:
.LFB3053:
	.cfi_startproc
	endbr64
	pushq	%rbp
	.cfi_def_cfa_offset 16
	.cfi_offset 6, -16
	movq	%rsp, %rbp
	.cfi_def_cfa_register 6
	subq	$32, %rsp
	movq	%rdi, -8(%rbp)
	movq	%rsi, -16(%rbp)
	movq	%rdx, -24(%rbp)
	movq	-24(%rbp), %rax
	movq	%rax, %rdi
	call	_ZSt7forwardIlEOT_RNSt16remove_referenceIS0_E4typeE
	movq	%rax, %rdx
	movq	-16(%rbp), %rcx
	movq	-8(%rbp), %rax
	movq	%rcx, %rsi
	movq	%rax, %rdi
	call	_ZN9__gnu_cxx13new_allocatorIlE9constructIlJlEEEvPT_DpOT0_
	nop
	leave
	.cfi_def_cfa 7, 8
	ret
	.cfi_endproc
.LFE3053:
	.size	_ZNSt16allocator_traitsISaIlEE9constructIlJlEEEvRS0_PT_DpOT0_, .-_ZNSt16allocator_traitsISaIlEE9constructIlJlEEEvRS0_PT_DpOT0_
	.section	.text._ZNSt6vectorIlSaIlEE17_M_realloc_insertIJlEEEvN9__gnu_cxx17__normal_iteratorIPlS1_EEDpOT_,"axG",@progbits,_ZNSt6vectorIlSaIlEE17_M_realloc_insertIJlEEEvN9__gnu_cxx17__normal_iteratorIPlS1_EEDpOT_,comdat
	.align 2
	.weak	_ZNSt6vectorIlSaIlEE17_M_realloc_insertIJlEEEvN9__gnu_cxx17__normal_iteratorIPlS1_EEDpOT_
	.type	_ZNSt6vectorIlSaIlEE17_M_realloc_insertIJlEEEvN9__gnu_cxx17__normal_iteratorIPlS1_EEDpOT_, @function
_ZNSt6vectorIlSaIlEE17_M_realloc_insertIJlEEEvN9__gnu_cxx17__normal_iteratorIPlS1_EEDpOT_:
.LFB3054:
	.cfi_startproc
	.cfi_personality 0x9b,DW.ref.__gxx_personality_v0
	.cfi_lsda 0x1b,.LLSDA3054
	endbr64
	pushq	%rbp
	.cfi_def_cfa_offset 16
	.cfi_offset 6, -16
	movq	%rsp, %rbp
	.cfi_def_cfa_register 6
	pushq	%rbx
	subq	$104, %rsp
	.cfi_offset 3, -24
	movq	%rdi, -88(%rbp)
	movq	%rsi, -96(%rbp)
	movq	%rdx, -104(%rbp)
	movq	%fs:40, %rax
	movq	%rax, -24(%rbp)
	xorl	%eax, %eax
	movq	-88(%rbp), %rax
	leaq	.LC12(%rip), %rdx
	movl	$1, %esi
	movq	%rax, %rdi
.LEHB9:
	call	_ZNKSt6vectorIlSaIlEE12_M_check_lenEmPKc
	movq	%rax, -64(%rbp)
	movq	-88(%rbp), %rax
	movq	(%rax), %rax
	movq	%rax, -56(%rbp)
	movq	-88(%rbp), %rax
	movq	8(%rax), %rax
	movq	%rax, -48(%rbp)
	movq	-88(%rbp), %rax
	movq	%rax, %rdi
	call	_ZNSt6vectorIlSaIlEE5beginEv
	movq	%rax, -80(%rbp)
	leaq	-80(%rbp), %rdx
	leaq	-96(%rbp), %rax
	movq	%rdx, %rsi
	movq	%rax, %rdi
	call	_ZN9__gnu_cxxmiIPlSt6vectorIlSaIlEEEENS_17__normal_iteratorIT_T0_E15difference_typeERKS8_SB_
	movq	%rax, -40(%rbp)
	movq	-88(%rbp), %rax
	movq	-64(%rbp), %rdx
	movq	%rdx, %rsi
	movq	%rax, %rdi
	call	_ZNSt12_Vector_baseIlSaIlEE11_M_allocateEm
.LEHE9:
	movq	%rax, -32(%rbp)
	movq	-32(%rbp), %rax
	movq	%rax, -72(%rbp)
	movq	-104(%rbp), %rax
	movq	%rax, %rdi
	call	_ZSt7forwardIlEOT_RNSt16remove_referenceIS0_E4typeE
	movq	%rax, %rdx
	movq	-40(%rbp), %rax
	leaq	0(,%rax,8), %rcx
	movq	-32(%rbp), %rax
	addq	%rax, %rcx
	movq	-88(%rbp), %rax
	movq	%rcx, %rsi
	movq	%rax, %rdi
	call	_ZNSt16allocator_traitsISaIlEE9constructIlJlEEEvRS0_PT_DpOT0_
	movq	$0, -72(%rbp)
	call	_ZNSt6vectorIlSaIlEE15_S_use_relocateEv
	testb	%al, %al
	je	.L221
	movq	-88(%rbp), %rax
	movq	%rax, %rdi
	call	_ZNSt12_Vector_baseIlSaIlEE19_M_get_Tp_allocatorEv
	movq	%rax, %rbx
	leaq	-96(%rbp), %rax
	movq	%rax, %rdi
	call	_ZNK9__gnu_cxx17__normal_iteratorIPlSt6vectorIlSaIlEEE4baseEv
	movq	(%rax), %rsi
	movq	-32(%rbp), %rdx
	movq	-56(%rbp), %rax
	movq	%rbx, %rcx
	movq	%rax, %rdi
	call	_ZNSt6vectorIlSaIlEE11_S_relocateEPlS2_S2_RS0_
	movq	%rax, -72(%rbp)
	addq	$8, -72(%rbp)
	movq	-88(%rbp), %rax
	movq	%rax, %rdi
	call	_ZNSt12_Vector_baseIlSaIlEE19_M_get_Tp_allocatorEv
	movq	%rax, %rbx
	leaq	-96(%rbp), %rax
	movq	%rax, %rdi
	call	_ZNK9__gnu_cxx17__normal_iteratorIPlSt6vectorIlSaIlEEE4baseEv
	movq	(%rax), %rax
	movq	-72(%rbp), %rdx
	movq	-48(%rbp), %rsi
	movq	%rbx, %rcx
	movq	%rax, %rdi
	call	_ZNSt6vectorIlSaIlEE11_S_relocateEPlS2_S2_RS0_
	movq	%rax, -72(%rbp)
	jmp	.L222
.L221:
	movq	-88(%rbp), %rax
	movq	%rax, %rdi
	call	_ZNSt12_Vector_baseIlSaIlEE19_M_get_Tp_allocatorEv
	movq	%rax, %rbx
	leaq	-96(%rbp), %rax
	movq	%rax, %rdi
	call	_ZNK9__gnu_cxx17__normal_iteratorIPlSt6vectorIlSaIlEEE4baseEv
	movq	(%rax), %rsi
	movq	-32(%rbp), %rdx
	movq	-56(%rbp), %rax
	movq	%rbx, %rcx
	movq	%rax, %rdi
.LEHB10:
	call	_ZSt34__uninitialized_move_if_noexcept_aIPlS0_SaIlEET0_T_S3_S2_RT1_
	movq	%rax, -72(%rbp)
	addq	$8, -72(%rbp)
	movq	-88(%rbp), %rax
	movq	%rax, %rdi
	call	_ZNSt12_Vector_baseIlSaIlEE19_M_get_Tp_allocatorEv
	movq	%rax, %rbx
	leaq	-96(%rbp), %rax
	movq	%rax, %rdi
	call	_ZNK9__gnu_cxx17__normal_iteratorIPlSt6vectorIlSaIlEEE4baseEv
	movq	(%rax), %rax
	movq	-72(%rbp), %rdx
	movq	-48(%rbp), %rsi
	movq	%rbx, %rcx
	movq	%rax, %rdi
	call	_ZSt34__uninitialized_move_if_noexcept_aIPlS0_SaIlEET0_T_S3_S2_RT1_
.LEHE10:
	movq	%rax, -72(%rbp)
.L222:
	call	_ZNSt6vectorIlSaIlEE15_S_use_relocateEv
	xorl	$1, %eax
	testb	%al, %al
	je	.L223
	movq	-88(%rbp), %rax
	movq	%rax, %rdi
	call	_ZNSt12_Vector_baseIlSaIlEE19_M_get_Tp_allocatorEv
	movq	%rax, %rdx
	movq	-48(%rbp), %rcx
	movq	-56(%rbp), %rax
	movq	%rcx, %rsi
	movq	%rax, %rdi
.LEHB11:
	call	_ZSt8_DestroyIPllEvT_S1_RSaIT0_E
.L223:
	movq	-88(%rbp), %rax
	movq	-88(%rbp), %rdx
	movq	16(%rdx), %rdx
	subq	-56(%rbp), %rdx
	sarq	$3, %rdx
	movq	-56(%rbp), %rcx
	movq	%rcx, %rsi
	movq	%rax, %rdi
	call	_ZNSt12_Vector_baseIlSaIlEE13_M_deallocateEPlm
.LEHE11:
	movq	-88(%rbp), %rax
	movq	-32(%rbp), %rdx
	movq	%rdx, (%rax)
	movq	-88(%rbp), %rax
	movq	-72(%rbp), %rdx
	movq	%rdx, 8(%rax)
	movq	-64(%rbp), %rax
	leaq	0(,%rax,8), %rdx
	movq	-32(%rbp), %rax
	addq	%rax, %rdx
	movq	-88(%rbp), %rax
	movq	%rdx, 16(%rax)
	nop
	movq	-24(%rbp), %rax
	xorq	%fs:40, %rax
	je	.L228
	jmp	.L231
.L229:
	endbr64
	movq	%rax, %rdi
	call	__cxa_begin_catch@PLT
	cmpq	$0, -72(%rbp)
	jne	.L225
	movq	-40(%rbp), %rax
	leaq	0(,%rax,8), %rdx
	movq	-32(%rbp), %rax
	addq	%rax, %rdx
	movq	-88(%rbp), %rax
	movq	%rdx, %rsi
	movq	%rax, %rdi
	call	_ZNSt16allocator_traitsISaIlEE7destroyIlEEvRS0_PT_
	jmp	.L226
.L225:
	movq	-88(%rbp), %rax
	movq	%rax, %rdi
	call	_ZNSt12_Vector_baseIlSaIlEE19_M_get_Tp_allocatorEv
	movq	%rax, %rdx
	movq	-72(%rbp), %rcx
	movq	-32(%rbp), %rax
	movq	%rcx, %rsi
	movq	%rax, %rdi
.LEHB12:
	call	_ZSt8_DestroyIPllEvT_S1_RSaIT0_E
.L226:
	movq	-88(%rbp), %rax
	movq	-64(%rbp), %rdx
	movq	-32(%rbp), %rcx
	movq	%rcx, %rsi
	movq	%rax, %rdi
	call	_ZNSt12_Vector_baseIlSaIlEE13_M_deallocateEPlm
	call	__cxa_rethrow@PLT
.LEHE12:
.L230:
	endbr64
	movq	%rax, %rbx
	call	__cxa_end_catch@PLT
	movq	%rbx, %rax
	movq	%rax, %rdi
.LEHB13:
	call	_Unwind_Resume@PLT
.LEHE13:
.L231:
	call	__stack_chk_fail@PLT
.L228:
	addq	$104, %rsp
	popq	%rbx
	popq	%rbp
	.cfi_def_cfa 7, 8
	ret
	.cfi_endproc
.LFE3054:
	.section	.gcc_except_table
	.align 4
.LLSDA3054:
	.byte	0xff
	.byte	0x9b
	.uleb128 .LLSDATT3054-.LLSDATTD3054
.LLSDATTD3054:
	.byte	0x1
	.uleb128 .LLSDACSE3054-.LLSDACSB3054
.LLSDACSB3054:
	.uleb128 .LEHB9-.LFB3054
	.uleb128 .LEHE9-.LEHB9
	.uleb128 0
	.uleb128 0
	.uleb128 .LEHB10-.LFB3054
	.uleb128 .LEHE10-.LEHB10
	.uleb128 .L229-.LFB3054
	.uleb128 0x1
	.uleb128 .LEHB11-.LFB3054
	.uleb128 .LEHE11-.LEHB11
	.uleb128 0
	.uleb128 0
	.uleb128 .LEHB12-.LFB3054
	.uleb128 .LEHE12-.LEHB12
	.uleb128 .L230-.LFB3054
	.uleb128 0
	.uleb128 .LEHB13-.LFB3054
	.uleb128 .LEHE13-.LEHB13
	.uleb128 0
	.uleb128 0
.LLSDACSE3054:
	.byte	0x1
	.byte	0
	.align 4
	.long	0

.LLSDATT3054:
	.section	.text._ZNSt6vectorIlSaIlEE17_M_realloc_insertIJlEEEvN9__gnu_cxx17__normal_iteratorIPlS1_EEDpOT_,"axG",@progbits,_ZNSt6vectorIlSaIlEE17_M_realloc_insertIJlEEEvN9__gnu_cxx17__normal_iteratorIPlS1_EEDpOT_,comdat
	.size	_ZNSt6vectorIlSaIlEE17_M_realloc_insertIJlEEEvN9__gnu_cxx17__normal_iteratorIPlS1_EEDpOT_, .-_ZNSt6vectorIlSaIlEE17_M_realloc_insertIJlEEEvN9__gnu_cxx17__normal_iteratorIPlS1_EEDpOT_
	.section	.text._ZNSt7__cxx1110_List_baseIcSaIcEE11_M_dec_sizeEm,"axG",@progbits,_ZNSt7__cxx1110_List_baseIcSaIcEE11_M_dec_sizeEm,comdat
	.align 2
	.weak	_ZNSt7__cxx1110_List_baseIcSaIcEE11_M_dec_sizeEm
	.type	_ZNSt7__cxx1110_List_baseIcSaIcEE11_M_dec_sizeEm, @function
_ZNSt7__cxx1110_List_baseIcSaIcEE11_M_dec_sizeEm:
.LFB3055:
	.cfi_startproc
	endbr64
	pushq	%rbp
	.cfi_def_cfa_offset 16
	.cfi_offset 6, -16
	movq	%rsp, %rbp
	.cfi_def_cfa_register 6
	movq	%rdi, -8(%rbp)
	movq	%rsi, -16(%rbp)
	movq	-8(%rbp), %rax
	movq	16(%rax), %rax
	subq	-16(%rbp), %rax
	movq	%rax, %rdx
	movq	-8(%rbp), %rax
	movq	%rdx, 16(%rax)
	nop
	popq	%rbp
	.cfi_def_cfa 7, 8
	ret
	.cfi_endproc
.LFE3055:
	.size	_ZNSt7__cxx1110_List_baseIcSaIcEE11_M_dec_sizeEm, .-_ZNSt7__cxx1110_List_baseIcSaIcEE11_M_dec_sizeEm
	.section	.text._ZNSt7__cxx1110_List_baseIcSaIcEE21_M_get_Node_allocatorEv,"axG",@progbits,_ZNSt7__cxx1110_List_baseIcSaIcEE21_M_get_Node_allocatorEv,comdat
	.align 2
	.weak	_ZNSt7__cxx1110_List_baseIcSaIcEE21_M_get_Node_allocatorEv
	.type	_ZNSt7__cxx1110_List_baseIcSaIcEE21_M_get_Node_allocatorEv, @function
_ZNSt7__cxx1110_List_baseIcSaIcEE21_M_get_Node_allocatorEv:
.LFB3056:
	.cfi_startproc
	endbr64
	pushq	%rbp
	.cfi_def_cfa_offset 16
	.cfi_offset 6, -16
	movq	%rsp, %rbp
	.cfi_def_cfa_register 6
	movq	%rdi, -8(%rbp)
	movq	-8(%rbp), %rax
	popq	%rbp
	.cfi_def_cfa 7, 8
	ret
	.cfi_endproc
.LFE3056:
	.size	_ZNSt7__cxx1110_List_baseIcSaIcEE21_M_get_Node_allocatorEv, .-_ZNSt7__cxx1110_List_baseIcSaIcEE21_M_get_Node_allocatorEv
	.section	.text._ZNSt16allocator_traitsISaISt10_List_nodeIcEEE7destroyIcEEvRS2_PT_,"axG",@progbits,_ZNSt16allocator_traitsISaISt10_List_nodeIcEEE7destroyIcEEvRS2_PT_,comdat
	.weak	_ZNSt16allocator_traitsISaISt10_List_nodeIcEEE7destroyIcEEvRS2_PT_
	.type	_ZNSt16allocator_traitsISaISt10_List_nodeIcEEE7destroyIcEEvRS2_PT_, @function
_ZNSt16allocator_traitsISaISt10_List_nodeIcEEE7destroyIcEEvRS2_PT_:
.LFB3057:
	.cfi_startproc
	endbr64
	pushq	%rbp
	.cfi_def_cfa_offset 16
	.cfi_offset 6, -16
	movq	%rsp, %rbp
	.cfi_def_cfa_register 6
	subq	$16, %rsp
	movq	%rdi, -8(%rbp)
	movq	%rsi, -16(%rbp)
	movq	-16(%rbp), %rdx
	movq	-8(%rbp), %rax
	movq	%rdx, %rsi
	movq	%rax, %rdi
	call	_ZN9__gnu_cxx13new_allocatorISt10_List_nodeIcEE7destroyIcEEvPT_
	nop
	leave
	.cfi_def_cfa 7, 8
	ret
	.cfi_endproc
.LFE3057:
	.size	_ZNSt16allocator_traitsISaISt10_List_nodeIcEEE7destroyIcEEvRS2_PT_, .-_ZNSt16allocator_traitsISaISt10_List_nodeIcEEE7destroyIcEEvRS2_PT_
	.section	.text._ZNSt7__cxx1110_List_baseIcSaIcEE11_M_put_nodeEPSt10_List_nodeIcE,"axG",@progbits,_ZNSt7__cxx1110_List_baseIcSaIcEE11_M_put_nodeEPSt10_List_nodeIcE,comdat
	.align 2
	.weak	_ZNSt7__cxx1110_List_baseIcSaIcEE11_M_put_nodeEPSt10_List_nodeIcE
	.type	_ZNSt7__cxx1110_List_baseIcSaIcEE11_M_put_nodeEPSt10_List_nodeIcE, @function
_ZNSt7__cxx1110_List_baseIcSaIcEE11_M_put_nodeEPSt10_List_nodeIcE:
.LFB3058:
	.cfi_startproc
	.cfi_personality 0x9b,DW.ref.__gxx_personality_v0
	.cfi_lsda 0x1b,.LLSDA3058
	endbr64
	pushq	%rbp
	.cfi_def_cfa_offset 16
	.cfi_offset 6, -16
	movq	%rsp, %rbp
	.cfi_def_cfa_register 6
	subq	$16, %rsp
	movq	%rdi, -8(%rbp)
	movq	%rsi, -16(%rbp)
	movq	-8(%rbp), %rax
	movq	-16(%rbp), %rcx
	movl	$1, %edx
	movq	%rcx, %rsi
	movq	%rax, %rdi
	call	_ZNSt16allocator_traitsISaISt10_List_nodeIcEEE10deallocateERS2_PS1_m
	nop
	leave
	.cfi_def_cfa 7, 8
	ret
	.cfi_endproc
.LFE3058:
	.section	.gcc_except_table
.LLSDA3058:
	.byte	0xff
	.byte	0xff
	.byte	0x1
	.uleb128 .LLSDACSE3058-.LLSDACSB3058
.LLSDACSB3058:
.LLSDACSE3058:
	.section	.text._ZNSt7__cxx1110_List_baseIcSaIcEE11_M_put_nodeEPSt10_List_nodeIcE,"axG",@progbits,_ZNSt7__cxx1110_List_baseIcSaIcEE11_M_put_nodeEPSt10_List_nodeIcE,comdat
	.size	_ZNSt7__cxx1110_List_baseIcSaIcEE11_M_put_nodeEPSt10_List_nodeIcE, .-_ZNSt7__cxx1110_List_baseIcSaIcEE11_M_put_nodeEPSt10_List_nodeIcE
	.section	.text._ZN9__gnu_cxx13new_allocatorISt10_List_nodeIlEEC2Ev,"axG",@progbits,_ZN9__gnu_cxx13new_allocatorISt10_List_nodeIlEEC5Ev,comdat
	.align 2
	.weak	_ZN9__gnu_cxx13new_allocatorISt10_List_nodeIlEEC2Ev
	.type	_ZN9__gnu_cxx13new_allocatorISt10_List_nodeIlEEC2Ev, @function
_ZN9__gnu_cxx13new_allocatorISt10_List_nodeIlEEC2Ev:
.LFB3060:
	.cfi_startproc
	endbr64
	pushq	%rbp
	.cfi_def_cfa_offset 16
	.cfi_offset 6, -16
	movq	%rsp, %rbp
	.cfi_def_cfa_register 6
	movq	%rdi, -8(%rbp)
	nop
	popq	%rbp
	.cfi_def_cfa 7, 8
	ret
	.cfi_endproc
.LFE3060:
	.size	_ZN9__gnu_cxx13new_allocatorISt10_List_nodeIlEEC2Ev, .-_ZN9__gnu_cxx13new_allocatorISt10_List_nodeIlEEC2Ev
	.weak	_ZN9__gnu_cxx13new_allocatorISt10_List_nodeIlEEC1Ev
	.set	_ZN9__gnu_cxx13new_allocatorISt10_List_nodeIlEEC1Ev,_ZN9__gnu_cxx13new_allocatorISt10_List_nodeIlEEC2Ev
	.section	.text._ZNSt7__cxx1110_List_baseIlSaIlEE21_M_get_Node_allocatorEv,"axG",@progbits,_ZNSt7__cxx1110_List_baseIlSaIlEE21_M_get_Node_allocatorEv,comdat
	.align 2
	.weak	_ZNSt7__cxx1110_List_baseIlSaIlEE21_M_get_Node_allocatorEv
	.type	_ZNSt7__cxx1110_List_baseIlSaIlEE21_M_get_Node_allocatorEv, @function
_ZNSt7__cxx1110_List_baseIlSaIlEE21_M_get_Node_allocatorEv:
.LFB3062:
	.cfi_startproc
	endbr64
	pushq	%rbp
	.cfi_def_cfa_offset 16
	.cfi_offset 6, -16
	movq	%rsp, %rbp
	.cfi_def_cfa_register 6
	movq	%rdi, -8(%rbp)
	movq	-8(%rbp), %rax
	popq	%rbp
	.cfi_def_cfa 7, 8
	ret
	.cfi_endproc
.LFE3062:
	.size	_ZNSt7__cxx1110_List_baseIlSaIlEE21_M_get_Node_allocatorEv, .-_ZNSt7__cxx1110_List_baseIlSaIlEE21_M_get_Node_allocatorEv
	.section	.text._ZNSt16allocator_traitsISaISt10_List_nodeIlEEE7destroyIlEEvRS2_PT_,"axG",@progbits,_ZNSt16allocator_traitsISaISt10_List_nodeIlEEE7destroyIlEEvRS2_PT_,comdat
	.weak	_ZNSt16allocator_traitsISaISt10_List_nodeIlEEE7destroyIlEEvRS2_PT_
	.type	_ZNSt16allocator_traitsISaISt10_List_nodeIlEEE7destroyIlEEvRS2_PT_, @function
_ZNSt16allocator_traitsISaISt10_List_nodeIlEEE7destroyIlEEvRS2_PT_:
.LFB3063:
	.cfi_startproc
	endbr64
	pushq	%rbp
	.cfi_def_cfa_offset 16
	.cfi_offset 6, -16
	movq	%rsp, %rbp
	.cfi_def_cfa_register 6
	subq	$16, %rsp
	movq	%rdi, -8(%rbp)
	movq	%rsi, -16(%rbp)
	movq	-16(%rbp), %rdx
	movq	-8(%rbp), %rax
	movq	%rdx, %rsi
	movq	%rax, %rdi
	call	_ZN9__gnu_cxx13new_allocatorISt10_List_nodeIlEE7destroyIlEEvPT_
	nop
	leave
	.cfi_def_cfa 7, 8
	ret
	.cfi_endproc
.LFE3063:
	.size	_ZNSt16allocator_traitsISaISt10_List_nodeIlEEE7destroyIlEEvRS2_PT_, .-_ZNSt16allocator_traitsISaISt10_List_nodeIlEEE7destroyIlEEvRS2_PT_
	.section	.text._ZNSt7__cxx1110_List_baseIlSaIlEE11_M_put_nodeEPSt10_List_nodeIlE,"axG",@progbits,_ZNSt7__cxx1110_List_baseIlSaIlEE11_M_put_nodeEPSt10_List_nodeIlE,comdat
	.align 2
	.weak	_ZNSt7__cxx1110_List_baseIlSaIlEE11_M_put_nodeEPSt10_List_nodeIlE
	.type	_ZNSt7__cxx1110_List_baseIlSaIlEE11_M_put_nodeEPSt10_List_nodeIlE, @function
_ZNSt7__cxx1110_List_baseIlSaIlEE11_M_put_nodeEPSt10_List_nodeIlE:
.LFB3064:
	.cfi_startproc
	.cfi_personality 0x9b,DW.ref.__gxx_personality_v0
	.cfi_lsda 0x1b,.LLSDA3064
	endbr64
	pushq	%rbp
	.cfi_def_cfa_offset 16
	.cfi_offset 6, -16
	movq	%rsp, %rbp
	.cfi_def_cfa_register 6
	subq	$16, %rsp
	movq	%rdi, -8(%rbp)
	movq	%rsi, -16(%rbp)
	movq	-8(%rbp), %rax
	movq	-16(%rbp), %rcx
	movl	$1, %edx
	movq	%rcx, %rsi
	movq	%rax, %rdi
	call	_ZNSt16allocator_traitsISaISt10_List_nodeIlEEE10deallocateERS2_PS1_m
	nop
	leave
	.cfi_def_cfa 7, 8
	ret
	.cfi_endproc
.LFE3064:
	.section	.gcc_except_table
.LLSDA3064:
	.byte	0xff
	.byte	0xff
	.byte	0x1
	.uleb128 .LLSDACSE3064-.LLSDACSB3064
.LLSDACSB3064:
.LLSDACSE3064:
	.section	.text._ZNSt7__cxx1110_List_baseIlSaIlEE11_M_put_nodeEPSt10_List_nodeIlE,"axG",@progbits,_ZNSt7__cxx1110_List_baseIlSaIlEE11_M_put_nodeEPSt10_List_nodeIlE,comdat
	.size	_ZNSt7__cxx1110_List_baseIlSaIlEE11_M_put_nodeEPSt10_List_nodeIlE, .-_ZNSt7__cxx1110_List_baseIlSaIlEE11_M_put_nodeEPSt10_List_nodeIlE
	.section	.text._ZNKSt7__cxx1110_List_baseIlSaIlEE11_M_get_sizeEv,"axG",@progbits,_ZNKSt7__cxx1110_List_baseIlSaIlEE11_M_get_sizeEv,comdat
	.align 2
	.weak	_ZNKSt7__cxx1110_List_baseIlSaIlEE11_M_get_sizeEv
	.type	_ZNKSt7__cxx1110_List_baseIlSaIlEE11_M_get_sizeEv, @function
_ZNKSt7__cxx1110_List_baseIlSaIlEE11_M_get_sizeEv:
.LFB3065:
	.cfi_startproc
	endbr64
	pushq	%rbp
	.cfi_def_cfa_offset 16
	.cfi_offset 6, -16
	movq	%rsp, %rbp
	.cfi_def_cfa_register 6
	movq	%rdi, -8(%rbp)
	movq	-8(%rbp), %rax
	movq	16(%rax), %rax
	popq	%rbp
	.cfi_def_cfa 7, 8
	ret
	.cfi_endproc
.LFE3065:
	.size	_ZNKSt7__cxx1110_List_baseIlSaIlEE11_M_get_sizeEv, .-_ZNKSt7__cxx1110_List_baseIlSaIlEE11_M_get_sizeEv
	.section	.text._ZSt7forwardIRKlEOT_RNSt16remove_referenceIS2_E4typeE,"axG",@progbits,_ZSt7forwardIRKlEOT_RNSt16remove_referenceIS2_E4typeE,comdat
	.weak	_ZSt7forwardIRKlEOT_RNSt16remove_referenceIS2_E4typeE
	.type	_ZSt7forwardIRKlEOT_RNSt16remove_referenceIS2_E4typeE, @function
_ZSt7forwardIRKlEOT_RNSt16remove_referenceIS2_E4typeE:
.LFB3066:
	.cfi_startproc
	endbr64
	pushq	%rbp
	.cfi_def_cfa_offset 16
	.cfi_offset 6, -16
	movq	%rsp, %rbp
	.cfi_def_cfa_register 6
	movq	%rdi, -8(%rbp)
	movq	-8(%rbp), %rax
	popq	%rbp
	.cfi_def_cfa 7, 8
	ret
	.cfi_endproc
.LFE3066:
	.size	_ZSt7forwardIRKlEOT_RNSt16remove_referenceIS2_E4typeE, .-_ZSt7forwardIRKlEOT_RNSt16remove_referenceIS2_E4typeE
	.section	.text._ZNSt7__cxx114listIlSaIlEE14_M_create_nodeIJRKlEEEPSt10_List_nodeIlEDpOT_,"axG",@progbits,_ZNSt7__cxx114listIlSaIlEE14_M_create_nodeIJRKlEEEPSt10_List_nodeIlEDpOT_,comdat
	.align 2
	.weak	_ZNSt7__cxx114listIlSaIlEE14_M_create_nodeIJRKlEEEPSt10_List_nodeIlEDpOT_
	.type	_ZNSt7__cxx114listIlSaIlEE14_M_create_nodeIJRKlEEEPSt10_List_nodeIlEDpOT_, @function
_ZNSt7__cxx114listIlSaIlEE14_M_create_nodeIJRKlEEEPSt10_List_nodeIlEDpOT_:
.LFB3067:
	.cfi_startproc
	endbr64
	pushq	%rbp
	.cfi_def_cfa_offset 16
	.cfi_offset 6, -16
	movq	%rsp, %rbp
	.cfi_def_cfa_register 6
	pushq	%rbx
	subq	$72, %rsp
	.cfi_offset 3, -24
	movq	%rdi, -72(%rbp)
	movq	%rsi, -80(%rbp)
	movq	%fs:40, %rax
	movq	%rax, -24(%rbp)
	xorl	%eax, %eax
	movq	-72(%rbp), %rax
	movq	%rax, %rdi
	call	_ZNSt7__cxx1110_List_baseIlSaIlEE11_M_get_nodeEv
	movq	%rax, -64(%rbp)
	movq	-72(%rbp), %rax
	movq	%rax, %rdi
	call	_ZNSt7__cxx1110_List_baseIlSaIlEE21_M_get_Node_allocatorEv
	movq	%rax, -56(%rbp)
	movq	-64(%rbp), %rdx
	movq	-56(%rbp), %rcx
	leaq	-48(%rbp), %rax
	movq	%rcx, %rsi
	movq	%rax, %rdi
	call	_ZNSt15__allocated_ptrISaISt10_List_nodeIlEEEC1ERS2_PS1_
	movq	-80(%rbp), %rax
	movq	%rax, %rdi
	call	_ZSt7forwardIRKlEOT_RNSt16remove_referenceIS2_E4typeE
	movq	%rax, %rbx
	movq	-64(%rbp), %rax
	movq	%rax, %rdi
	call	_ZNSt10_List_nodeIlE9_M_valptrEv
	movq	%rax, %rcx
	movq	-56(%rbp), %rax
	movq	%rbx, %rdx
	movq	%rcx, %rsi
	movq	%rax, %rdi
	call	_ZNSt16allocator_traitsISaISt10_List_nodeIlEEE9constructIlJRKlEEEvRS2_PT_DpOT0_
	leaq	-48(%rbp), %rax
	movl	$0, %esi
	movq	%rax, %rdi
	call	_ZNSt15__allocated_ptrISaISt10_List_nodeIlEEEaSEDn
	movq	-64(%rbp), %rbx
	leaq	-48(%rbp), %rax
	movq	%rax, %rdi
	call	_ZNSt15__allocated_ptrISaISt10_List_nodeIlEEED1Ev
	movq	%rbx, %rax
	movq	-24(%rbp), %rdx
	xorq	%fs:40, %rdx
	je	.L248
	call	__stack_chk_fail@PLT
.L248:
	addq	$72, %rsp
	popq	%rbx
	popq	%rbp
	.cfi_def_cfa 7, 8
	ret
	.cfi_endproc
.LFE3067:
	.size	_ZNSt7__cxx114listIlSaIlEE14_M_create_nodeIJRKlEEEPSt10_List_nodeIlEDpOT_, .-_ZNSt7__cxx114listIlSaIlEE14_M_create_nodeIJRKlEEEPSt10_List_nodeIlEDpOT_
	.section	.text._ZNSt7__cxx1110_List_baseIlSaIlEE11_M_inc_sizeEm,"axG",@progbits,_ZNSt7__cxx1110_List_baseIlSaIlEE11_M_inc_sizeEm,comdat
	.align 2
	.weak	_ZNSt7__cxx1110_List_baseIlSaIlEE11_M_inc_sizeEm
	.type	_ZNSt7__cxx1110_List_baseIlSaIlEE11_M_inc_sizeEm, @function
_ZNSt7__cxx1110_List_baseIlSaIlEE11_M_inc_sizeEm:
.LFB3068:
	.cfi_startproc
	endbr64
	pushq	%rbp
	.cfi_def_cfa_offset 16
	.cfi_offset 6, -16
	movq	%rsp, %rbp
	.cfi_def_cfa_register 6
	movq	%rdi, -8(%rbp)
	movq	%rsi, -16(%rbp)
	movq	-8(%rbp), %rax
	movq	16(%rax), %rdx
	movq	-16(%rbp), %rax
	addq	%rax, %rdx
	movq	-8(%rbp), %rax
	movq	%rdx, 16(%rax)
	nop
	popq	%rbp
	.cfi_def_cfa 7, 8
	ret
	.cfi_endproc
.LFE3068:
	.size	_ZNSt7__cxx1110_List_baseIlSaIlEE11_M_inc_sizeEm, .-_ZNSt7__cxx1110_List_baseIlSaIlEE11_M_inc_sizeEm
	.section	.text._ZN9__gnu_cxx16__aligned_membufIlE6_M_ptrEv,"axG",@progbits,_ZN9__gnu_cxx16__aligned_membufIlE6_M_ptrEv,comdat
	.align 2
	.weak	_ZN9__gnu_cxx16__aligned_membufIlE6_M_ptrEv
	.type	_ZN9__gnu_cxx16__aligned_membufIlE6_M_ptrEv, @function
_ZN9__gnu_cxx16__aligned_membufIlE6_M_ptrEv:
.LFB3069:
	.cfi_startproc
	endbr64
	pushq	%rbp
	.cfi_def_cfa_offset 16
	.cfi_offset 6, -16
	movq	%rsp, %rbp
	.cfi_def_cfa_register 6
	subq	$16, %rsp
	movq	%rdi, -8(%rbp)
	movq	-8(%rbp), %rax
	movq	%rax, %rdi
	call	_ZN9__gnu_cxx16__aligned_membufIlE7_M_addrEv
	leave
	.cfi_def_cfa 7, 8
	ret
	.cfi_endproc
.LFE3069:
	.size	_ZN9__gnu_cxx16__aligned_membufIlE6_M_ptrEv, .-_ZN9__gnu_cxx16__aligned_membufIlE6_M_ptrEv
	.section	.text._ZN9__gnu_cxx13new_allocatorIlE9constructIlJRKlEEEvPT_DpOT0_,"axG",@progbits,_ZN9__gnu_cxx13new_allocatorIlE9constructIlJRKlEEEvPT_DpOT0_,comdat
	.align 2
	.weak	_ZN9__gnu_cxx13new_allocatorIlE9constructIlJRKlEEEvPT_DpOT0_
	.type	_ZN9__gnu_cxx13new_allocatorIlE9constructIlJRKlEEEvPT_DpOT0_, @function
_ZN9__gnu_cxx13new_allocatorIlE9constructIlJRKlEEEvPT_DpOT0_:
.LFB3070:
	.cfi_startproc
	endbr64
	pushq	%rbp
	.cfi_def_cfa_offset 16
	.cfi_offset 6, -16
	movq	%rsp, %rbp
	.cfi_def_cfa_register 6
	pushq	%rbx
	subq	$40, %rsp
	.cfi_offset 3, -24
	movq	%rdi, -24(%rbp)
	movq	%rsi, -32(%rbp)
	movq	%rdx, -40(%rbp)
	movq	-40(%rbp), %rax
	movq	%rax, %rdi
	call	_ZSt7forwardIRKlEOT_RNSt16remove_referenceIS2_E4typeE
	movq	(%rax), %rbx
	movq	-32(%rbp), %rax
	movq	%rax, %rsi
	movl	$8, %edi
	call	_ZnwmPv
	movq	%rbx, (%rax)
	nop
	addq	$40, %rsp
	popq	%rbx
	popq	%rbp
	.cfi_def_cfa 7, 8
	ret
	.cfi_endproc
.LFE3070:
	.size	_ZN9__gnu_cxx13new_allocatorIlE9constructIlJRKlEEEvPT_DpOT0_, .-_ZN9__gnu_cxx13new_allocatorIlE9constructIlJRKlEEEvPT_DpOT0_
	.section	.text._ZNKSt6vectorIlSaIlEE12_M_check_lenEmPKc,"axG",@progbits,_ZNKSt6vectorIlSaIlEE12_M_check_lenEmPKc,comdat
	.align 2
	.weak	_ZNKSt6vectorIlSaIlEE12_M_check_lenEmPKc
	.type	_ZNKSt6vectorIlSaIlEE12_M_check_lenEmPKc, @function
_ZNKSt6vectorIlSaIlEE12_M_check_lenEmPKc:
.LFB3071:
	.cfi_startproc
	endbr64
	pushq	%rbp
	.cfi_def_cfa_offset 16
	.cfi_offset 6, -16
	movq	%rsp, %rbp
	.cfi_def_cfa_register 6
	pushq	%rbx
	subq	$72, %rsp
	.cfi_offset 3, -24
	movq	%rdi, -56(%rbp)
	movq	%rsi, -64(%rbp)
	movq	%rdx, -72(%rbp)
	movq	%fs:40, %rax
	movq	%rax, -24(%rbp)
	xorl	%eax, %eax
	movq	-56(%rbp), %rax
	movq	%rax, %rdi
	call	_ZNKSt6vectorIlSaIlEE8max_sizeEv
	movq	%rax, %rbx
	movq	-56(%rbp), %rax
	movq	%rax, %rdi
	call	_ZNKSt6vectorIlSaIlEE4sizeEv
	subq	%rax, %rbx
	movq	%rbx, %rdx
	movq	-64(%rbp), %rax
	cmpq	%rax, %rdx
	setb	%al
	testb	%al, %al
	je	.L254
	movq	-72(%rbp), %rax
	movq	%rax, %rdi
	call	_ZSt20__throw_length_errorPKc@PLT
.L254:
	movq	-56(%rbp), %rax
	movq	%rax, %rdi
	call	_ZNKSt6vectorIlSaIlEE4sizeEv
	movq	%rax, %rbx
	movq	-56(%rbp), %rax
	movq	%rax, %rdi
	call	_ZNKSt6vectorIlSaIlEE4sizeEv
	movq	%rax, -40(%rbp)
	leaq	-64(%rbp), %rdx
	leaq	-40(%rbp), %rax
	movq	%rdx, %rsi
	movq	%rax, %rdi
	call	_ZSt3maxImERKT_S2_S2_
	movq	(%rax), %rax
	addq	%rbx, %rax
	movq	%rax, -32(%rbp)
	movq	-56(%rbp), %rax
	movq	%rax, %rdi
	call	_ZNKSt6vectorIlSaIlEE4sizeEv
	cmpq	%rax, -32(%rbp)
	jb	.L255
	movq	-56(%rbp), %rax
	movq	%rax, %rdi
	call	_ZNKSt6vectorIlSaIlEE8max_sizeEv
	cmpq	%rax, -32(%rbp)
	jbe	.L256
.L255:
	movq	-56(%rbp), %rax
	movq	%rax, %rdi
	call	_ZNKSt6vectorIlSaIlEE8max_sizeEv
	jmp	.L257
.L256:
	movq	-32(%rbp), %rax
.L257:
	movq	-24(%rbp), %rcx
	xorq	%fs:40, %rcx
	je	.L259
	call	__stack_chk_fail@PLT
.L259:
	addq	$72, %rsp
	popq	%rbx
	popq	%rbp
	.cfi_def_cfa 7, 8
	ret
	.cfi_endproc
.LFE3071:
	.size	_ZNKSt6vectorIlSaIlEE12_M_check_lenEmPKc, .-_ZNKSt6vectorIlSaIlEE12_M_check_lenEmPKc
	.section	.text._ZN9__gnu_cxxmiIPlSt6vectorIlSaIlEEEENS_17__normal_iteratorIT_T0_E15difference_typeERKS8_SB_,"axG",@progbits,_ZN9__gnu_cxxmiIPlSt6vectorIlSaIlEEEENS_17__normal_iteratorIT_T0_E15difference_typeERKS8_SB_,comdat
	.weak	_ZN9__gnu_cxxmiIPlSt6vectorIlSaIlEEEENS_17__normal_iteratorIT_T0_E15difference_typeERKS8_SB_
	.type	_ZN9__gnu_cxxmiIPlSt6vectorIlSaIlEEEENS_17__normal_iteratorIT_T0_E15difference_typeERKS8_SB_, @function
_ZN9__gnu_cxxmiIPlSt6vectorIlSaIlEEEENS_17__normal_iteratorIT_T0_E15difference_typeERKS8_SB_:
.LFB3072:
	.cfi_startproc
	endbr64
	pushq	%rbp
	.cfi_def_cfa_offset 16
	.cfi_offset 6, -16
	movq	%rsp, %rbp
	.cfi_def_cfa_register 6
	pushq	%rbx
	subq	$24, %rsp
	.cfi_offset 3, -24
	movq	%rdi, -24(%rbp)
	movq	%rsi, -32(%rbp)
	movq	-24(%rbp), %rax
	movq	%rax, %rdi
	call	_ZNK9__gnu_cxx17__normal_iteratorIPlSt6vectorIlSaIlEEE4baseEv
	movq	(%rax), %rbx
	movq	-32(%rbp), %rax
	movq	%rax, %rdi
	call	_ZNK9__gnu_cxx17__normal_iteratorIPlSt6vectorIlSaIlEEE4baseEv
	movq	(%rax), %rax
	subq	%rax, %rbx
	movq	%rbx, %rax
	sarq	$3, %rax
	addq	$24, %rsp
	popq	%rbx
	popq	%rbp
	.cfi_def_cfa 7, 8
	ret
	.cfi_endproc
.LFE3072:
	.size	_ZN9__gnu_cxxmiIPlSt6vectorIlSaIlEEEENS_17__normal_iteratorIT_T0_E15difference_typeERKS8_SB_, .-_ZN9__gnu_cxxmiIPlSt6vectorIlSaIlEEEENS_17__normal_iteratorIT_T0_E15difference_typeERKS8_SB_
	.section	.text._ZNSt12_Vector_baseIlSaIlEE11_M_allocateEm,"axG",@progbits,_ZNSt12_Vector_baseIlSaIlEE11_M_allocateEm,comdat
	.align 2
	.weak	_ZNSt12_Vector_baseIlSaIlEE11_M_allocateEm
	.type	_ZNSt12_Vector_baseIlSaIlEE11_M_allocateEm, @function
_ZNSt12_Vector_baseIlSaIlEE11_M_allocateEm:
.LFB3073:
	.cfi_startproc
	endbr64
	pushq	%rbp
	.cfi_def_cfa_offset 16
	.cfi_offset 6, -16
	movq	%rsp, %rbp
	.cfi_def_cfa_register 6
	subq	$16, %rsp
	movq	%rdi, -8(%rbp)
	movq	%rsi, -16(%rbp)
	cmpq	$0, -16(%rbp)
	je	.L263
	movq	-8(%rbp), %rax
	movq	-16(%rbp), %rdx
	movq	%rdx, %rsi
	movq	%rax, %rdi
	call	_ZNSt16allocator_traitsISaIlEE8allocateERS0_m
	jmp	.L265
.L263:
	movl	$0, %eax
.L265:
	leave
	.cfi_def_cfa 7, 8
	ret
	.cfi_endproc
.LFE3073:
	.size	_ZNSt12_Vector_baseIlSaIlEE11_M_allocateEm, .-_ZNSt12_Vector_baseIlSaIlEE11_M_allocateEm
	.section	.text._ZNSt6vectorIlSaIlEE11_S_relocateEPlS2_S2_RS0_,"axG",@progbits,_ZNSt6vectorIlSaIlEE11_S_relocateEPlS2_S2_RS0_,comdat
	.weak	_ZNSt6vectorIlSaIlEE11_S_relocateEPlS2_S2_RS0_
	.type	_ZNSt6vectorIlSaIlEE11_S_relocateEPlS2_S2_RS0_, @function
_ZNSt6vectorIlSaIlEE11_S_relocateEPlS2_S2_RS0_:
.LFB3074:
	.cfi_startproc
	endbr64
	pushq	%rbp
	.cfi_def_cfa_offset 16
	.cfi_offset 6, -16
	movq	%rsp, %rbp
	.cfi_def_cfa_register 6
	subq	$48, %rsp
	movq	%rdi, -24(%rbp)
	movq	%rsi, -32(%rbp)
	movq	%rdx, -40(%rbp)
	movq	%rcx, -48(%rbp)
	movq	%fs:40, %rax
	movq	%rax, -8(%rbp)
	xorl	%eax, %eax
	movq	-48(%rbp), %rcx
	movq	-40(%rbp), %rdx
	movq	-32(%rbp), %rsi
	movq	-24(%rbp), %rax
	movq	%rax, %rdi
	call	_ZNSt6vectorIlSaIlEE14_S_do_relocateEPlS2_S2_RS0_St17integral_constantIbLb1EE
	movq	-8(%rbp), %rdi
	xorq	%fs:40, %rdi
	je	.L268
	call	__stack_chk_fail@PLT
.L268:
	leave
	.cfi_def_cfa 7, 8
	ret
	.cfi_endproc
.LFE3074:
	.size	_ZNSt6vectorIlSaIlEE11_S_relocateEPlS2_S2_RS0_, .-_ZNSt6vectorIlSaIlEE11_S_relocateEPlS2_S2_RS0_
	.section	.text._ZSt34__uninitialized_move_if_noexcept_aIPlS0_SaIlEET0_T_S3_S2_RT1_,"axG",@progbits,_ZSt34__uninitialized_move_if_noexcept_aIPlS0_SaIlEET0_T_S3_S2_RT1_,comdat
	.weak	_ZSt34__uninitialized_move_if_noexcept_aIPlS0_SaIlEET0_T_S3_S2_RT1_
	.type	_ZSt34__uninitialized_move_if_noexcept_aIPlS0_SaIlEET0_T_S3_S2_RT1_, @function
_ZSt34__uninitialized_move_if_noexcept_aIPlS0_SaIlEET0_T_S3_S2_RT1_:
.LFB3075:
	.cfi_startproc
	endbr64
	pushq	%rbp
	.cfi_def_cfa_offset 16
	.cfi_offset 6, -16
	movq	%rsp, %rbp
	.cfi_def_cfa_register 6
	pushq	%rbx
	subq	$40, %rsp
	.cfi_offset 3, -24
	movq	%rdi, -24(%rbp)
	movq	%rsi, -32(%rbp)
	movq	%rdx, -40(%rbp)
	movq	%rcx, -48(%rbp)
	movq	-32(%rbp), %rax
	movq	%rax, %rdi
	call	_ZSt32__make_move_if_noexcept_iteratorIlSt13move_iteratorIPlEET0_PT_
	movq	%rax, %rbx
	movq	-24(%rbp), %rax
	movq	%rax, %rdi
	call	_ZSt32__make_move_if_noexcept_iteratorIlSt13move_iteratorIPlEET0_PT_
	movq	%rax, %rdi
	movq	-48(%rbp), %rdx
	movq	-40(%rbp), %rax
	movq	%rdx, %rcx
	movq	%rax, %rdx
	movq	%rbx, %rsi
	call	_ZSt22__uninitialized_copy_aISt13move_iteratorIPlES1_lET0_T_S4_S3_RSaIT1_E
	addq	$40, %rsp
	popq	%rbx
	popq	%rbp
	.cfi_def_cfa 7, 8
	ret
	.cfi_endproc
.LFE3075:
	.size	_ZSt34__uninitialized_move_if_noexcept_aIPlS0_SaIlEET0_T_S3_S2_RT1_, .-_ZSt34__uninitialized_move_if_noexcept_aIPlS0_SaIlEET0_T_S3_S2_RT1_
	.section	.text._ZNSt16allocator_traitsISaIlEE7destroyIlEEvRS0_PT_,"axG",@progbits,_ZNSt16allocator_traitsISaIlEE7destroyIlEEvRS0_PT_,comdat
	.weak	_ZNSt16allocator_traitsISaIlEE7destroyIlEEvRS0_PT_
	.type	_ZNSt16allocator_traitsISaIlEE7destroyIlEEvRS0_PT_, @function
_ZNSt16allocator_traitsISaIlEE7destroyIlEEvRS0_PT_:
.LFB3076:
	.cfi_startproc
	endbr64
	pushq	%rbp
	.cfi_def_cfa_offset 16
	.cfi_offset 6, -16
	movq	%rsp, %rbp
	.cfi_def_cfa_register 6
	subq	$16, %rsp
	movq	%rdi, -8(%rbp)
	movq	%rsi, -16(%rbp)
	movq	-16(%rbp), %rdx
	movq	-8(%rbp), %rax
	movq	%rdx, %rsi
	movq	%rax, %rdi
	call	_ZN9__gnu_cxx13new_allocatorIlE7destroyIlEEvPT_
	nop
	leave
	.cfi_def_cfa 7, 8
	ret
	.cfi_endproc
.LFE3076:
	.size	_ZNSt16allocator_traitsISaIlEE7destroyIlEEvRS0_PT_, .-_ZNSt16allocator_traitsISaIlEE7destroyIlEEvRS0_PT_
	.section	.text._ZNSt7__cxx1110_List_baseIlSaIlEE11_M_dec_sizeEm,"axG",@progbits,_ZNSt7__cxx1110_List_baseIlSaIlEE11_M_dec_sizeEm,comdat
	.align 2
	.weak	_ZNSt7__cxx1110_List_baseIlSaIlEE11_M_dec_sizeEm
	.type	_ZNSt7__cxx1110_List_baseIlSaIlEE11_M_dec_sizeEm, @function
_ZNSt7__cxx1110_List_baseIlSaIlEE11_M_dec_sizeEm:
.LFB3077:
	.cfi_startproc
	endbr64
	pushq	%rbp
	.cfi_def_cfa_offset 16
	.cfi_offset 6, -16
	movq	%rsp, %rbp
	.cfi_def_cfa_register 6
	movq	%rdi, -8(%rbp)
	movq	%rsi, -16(%rbp)
	movq	-8(%rbp), %rax
	movq	16(%rax), %rax
	subq	-16(%rbp), %rax
	movq	%rax, %rdx
	movq	-8(%rbp), %rax
	movq	%rdx, 16(%rax)
	nop
	popq	%rbp
	.cfi_def_cfa 7, 8
	ret
	.cfi_endproc
.LFE3077:
	.size	_ZNSt7__cxx1110_List_baseIlSaIlEE11_M_dec_sizeEm, .-_ZNSt7__cxx1110_List_baseIlSaIlEE11_M_dec_sizeEm
	.section	.text._ZN9__gnu_cxx13new_allocatorISt10_List_nodeIcEEC2Ev,"axG",@progbits,_ZN9__gnu_cxx13new_allocatorISt10_List_nodeIcEEC5Ev,comdat
	.align 2
	.weak	_ZN9__gnu_cxx13new_allocatorISt10_List_nodeIcEEC2Ev
	.type	_ZN9__gnu_cxx13new_allocatorISt10_List_nodeIcEEC2Ev, @function
_ZN9__gnu_cxx13new_allocatorISt10_List_nodeIcEEC2Ev:
.LFB3079:
	.cfi_startproc
	endbr64
	pushq	%rbp
	.cfi_def_cfa_offset 16
	.cfi_offset 6, -16
	movq	%rsp, %rbp
	.cfi_def_cfa_register 6
	movq	%rdi, -8(%rbp)
	nop
	popq	%rbp
	.cfi_def_cfa 7, 8
	ret
	.cfi_endproc
.LFE3079:
	.size	_ZN9__gnu_cxx13new_allocatorISt10_List_nodeIcEEC2Ev, .-_ZN9__gnu_cxx13new_allocatorISt10_List_nodeIcEEC2Ev
	.weak	_ZN9__gnu_cxx13new_allocatorISt10_List_nodeIcEEC1Ev
	.set	_ZN9__gnu_cxx13new_allocatorISt10_List_nodeIcEEC1Ev,_ZN9__gnu_cxx13new_allocatorISt10_List_nodeIcEEC2Ev
	.section	.text._ZN9__gnu_cxx13new_allocatorIlEC2Ev,"axG",@progbits,_ZN9__gnu_cxx13new_allocatorIlEC5Ev,comdat
	.align 2
	.weak	_ZN9__gnu_cxx13new_allocatorIlEC2Ev
	.type	_ZN9__gnu_cxx13new_allocatorIlEC2Ev, @function
_ZN9__gnu_cxx13new_allocatorIlEC2Ev:
.LFB3082:
	.cfi_startproc
	endbr64
	pushq	%rbp
	.cfi_def_cfa_offset 16
	.cfi_offset 6, -16
	movq	%rsp, %rbp
	.cfi_def_cfa_register 6
	movq	%rdi, -8(%rbp)
	nop
	popq	%rbp
	.cfi_def_cfa 7, 8
	ret
	.cfi_endproc
.LFE3082:
	.size	_ZN9__gnu_cxx13new_allocatorIlEC2Ev, .-_ZN9__gnu_cxx13new_allocatorIlEC2Ev
	.weak	_ZN9__gnu_cxx13new_allocatorIlEC1Ev
	.set	_ZN9__gnu_cxx13new_allocatorIlEC1Ev,_ZN9__gnu_cxx13new_allocatorIlEC2Ev
	.section	.text._ZNSt16allocator_traitsISaIlEE10deallocateERS0_Plm,"axG",@progbits,_ZNSt16allocator_traitsISaIlEE10deallocateERS0_Plm,comdat
	.weak	_ZNSt16allocator_traitsISaIlEE10deallocateERS0_Plm
	.type	_ZNSt16allocator_traitsISaIlEE10deallocateERS0_Plm, @function
_ZNSt16allocator_traitsISaIlEE10deallocateERS0_Plm:
.LFB3084:
	.cfi_startproc
	endbr64
	pushq	%rbp
	.cfi_def_cfa_offset 16
	.cfi_offset 6, -16
	movq	%rsp, %rbp
	.cfi_def_cfa_register 6
	subq	$32, %rsp
	movq	%rdi, -8(%rbp)
	movq	%rsi, -16(%rbp)
	movq	%rdx, -24(%rbp)
	movq	-24(%rbp), %rdx
	movq	-16(%rbp), %rcx
	movq	-8(%rbp), %rax
	movq	%rcx, %rsi
	movq	%rax, %rdi
	call	_ZN9__gnu_cxx13new_allocatorIlE10deallocateEPlm
	nop
	leave
	.cfi_def_cfa 7, 8
	ret
	.cfi_endproc
.LFE3084:
	.size	_ZNSt16allocator_traitsISaIlEE10deallocateERS0_Plm, .-_ZNSt16allocator_traitsISaIlEE10deallocateERS0_Plm
	.section	.text._ZSt8_DestroyIPlEvT_S1_,"axG",@progbits,_ZSt8_DestroyIPlEvT_S1_,comdat
	.weak	_ZSt8_DestroyIPlEvT_S1_
	.type	_ZSt8_DestroyIPlEvT_S1_, @function
_ZSt8_DestroyIPlEvT_S1_:
.LFB3085:
	.cfi_startproc
	endbr64
	pushq	%rbp
	.cfi_def_cfa_offset 16
	.cfi_offset 6, -16
	movq	%rsp, %rbp
	.cfi_def_cfa_register 6
	subq	$16, %rsp
	movq	%rdi, -8(%rbp)
	movq	%rsi, -16(%rbp)
	movq	-16(%rbp), %rdx
	movq	-8(%rbp), %rax
	movq	%rdx, %rsi
	movq	%rax, %rdi
	call	_ZNSt12_Destroy_auxILb1EE9__destroyIPlEEvT_S3_
	nop
	leave
	.cfi_def_cfa 7, 8
	ret
	.cfi_endproc
.LFE3085:
	.size	_ZSt8_DestroyIPlEvT_S1_, .-_ZSt8_DestroyIPlEvT_S1_
	.section	.text._ZSt16__introsort_loopIN9__gnu_cxx17__normal_iteratorIPlSt6vectorIlSaIlEEEElNS0_5__ops15_Iter_less_iterEEvT_S9_T0_T1_,"axG",@progbits,_ZSt16__introsort_loopIN9__gnu_cxx17__normal_iteratorIPlSt6vectorIlSaIlEEEElNS0_5__ops15_Iter_less_iterEEvT_S9_T0_T1_,comdat
	.weak	_ZSt16__introsort_loopIN9__gnu_cxx17__normal_iteratorIPlSt6vectorIlSaIlEEEElNS0_5__ops15_Iter_less_iterEEvT_S9_T0_T1_
	.type	_ZSt16__introsort_loopIN9__gnu_cxx17__normal_iteratorIPlSt6vectorIlSaIlEEEElNS0_5__ops15_Iter_less_iterEEvT_S9_T0_T1_, @function
_ZSt16__introsort_loopIN9__gnu_cxx17__normal_iteratorIPlSt6vectorIlSaIlEEEElNS0_5__ops15_Iter_less_iterEEvT_S9_T0_T1_:
.LFB3086:
	.cfi_startproc
	endbr64
	pushq	%rbp
	.cfi_def_cfa_offset 16
	.cfi_offset 6, -16
	movq	%rsp, %rbp
	.cfi_def_cfa_register 6
	subq	$48, %rsp
	movq	%rdi, -24(%rbp)
	movq	%rsi, -32(%rbp)
	movq	%rdx, -40(%rbp)
	movq	%fs:40, %rax
	movq	%rax, -8(%rbp)
	xorl	%eax, %eax
.L280:
	leaq	-24(%rbp), %rdx
	leaq	-32(%rbp), %rax
	movq	%rdx, %rsi
	movq	%rax, %rdi
	call	_ZN9__gnu_cxxmiIPlSt6vectorIlSaIlEEEENS_17__normal_iteratorIT_T0_E15difference_typeERKS8_SB_
	cmpq	$16, %rax
	setg	%al
	testb	%al, %al
	je	.L277
	cmpq	$0, -40(%rbp)
	jne	.L279
	movq	-32(%rbp), %rdx
	movq	-32(%rbp), %rcx
	movq	-24(%rbp), %rax
	movq	%rcx, %rsi
	movq	%rax, %rdi
	call	_ZSt14__partial_sortIN9__gnu_cxx17__normal_iteratorIPlSt6vectorIlSaIlEEEENS0_5__ops15_Iter_less_iterEEvT_S9_S9_T0_
	jmp	.L277
.L279:
	subq	$1, -40(%rbp)
	movq	-32(%rbp), %rdx
	movq	-24(%rbp), %rax
	movq	%rdx, %rsi
	movq	%rax, %rdi
	call	_ZSt27__unguarded_partition_pivotIN9__gnu_cxx17__normal_iteratorIPlSt6vectorIlSaIlEEEENS0_5__ops15_Iter_less_iterEET_S9_S9_T0_
	movq	%rax, -16(%rbp)
	movq	-40(%rbp), %rdx
	movq	-32(%rbp), %rcx
	movq	-16(%rbp), %rax
	movq	%rcx, %rsi
	movq	%rax, %rdi
	call	_ZSt16__introsort_loopIN9__gnu_cxx17__normal_iteratorIPlSt6vectorIlSaIlEEEElNS0_5__ops15_Iter_less_iterEEvT_S9_T0_T1_
	movq	-16(%rbp), %rax
	movq	%rax, -32(%rbp)
	jmp	.L280
.L277:
	movq	-8(%rbp), %rax
	xorq	%fs:40, %rax
	je	.L281
	call	__stack_chk_fail@PLT
.L281:
	leave
	.cfi_def_cfa 7, 8
	ret
	.cfi_endproc
.LFE3086:
	.size	_ZSt16__introsort_loopIN9__gnu_cxx17__normal_iteratorIPlSt6vectorIlSaIlEEEElNS0_5__ops15_Iter_less_iterEEvT_S9_T0_T1_, .-_ZSt16__introsort_loopIN9__gnu_cxx17__normal_iteratorIPlSt6vectorIlSaIlEEEElNS0_5__ops15_Iter_less_iterEEvT_S9_T0_T1_
	.section	.text._ZSt22__final_insertion_sortIN9__gnu_cxx17__normal_iteratorIPlSt6vectorIlSaIlEEEENS0_5__ops15_Iter_less_iterEEvT_S9_T0_,"axG",@progbits,_ZSt22__final_insertion_sortIN9__gnu_cxx17__normal_iteratorIPlSt6vectorIlSaIlEEEENS0_5__ops15_Iter_less_iterEEvT_S9_T0_,comdat
	.weak	_ZSt22__final_insertion_sortIN9__gnu_cxx17__normal_iteratorIPlSt6vectorIlSaIlEEEENS0_5__ops15_Iter_less_iterEEvT_S9_T0_
	.type	_ZSt22__final_insertion_sortIN9__gnu_cxx17__normal_iteratorIPlSt6vectorIlSaIlEEEENS0_5__ops15_Iter_less_iterEEvT_S9_T0_, @function
_ZSt22__final_insertion_sortIN9__gnu_cxx17__normal_iteratorIPlSt6vectorIlSaIlEEEENS0_5__ops15_Iter_less_iterEEvT_S9_T0_:
.LFB3087:
	.cfi_startproc
	endbr64
	pushq	%rbp
	.cfi_def_cfa_offset 16
	.cfi_offset 6, -16
	movq	%rsp, %rbp
	.cfi_def_cfa_register 6
	subq	$32, %rsp
	movq	%rdi, -8(%rbp)
	movq	%rsi, -16(%rbp)
	leaq	-8(%rbp), %rdx
	leaq	-16(%rbp), %rax
	movq	%rdx, %rsi
	movq	%rax, %rdi
	call	_ZN9__gnu_cxxmiIPlSt6vectorIlSaIlEEEENS_17__normal_iteratorIT_T0_E15difference_typeERKS8_SB_
	cmpq	$16, %rax
	setg	%al
	testb	%al, %al
	je	.L283
	leaq	-8(%rbp), %rax
	movl	$16, %esi
	movq	%rax, %rdi
	call	_ZNK9__gnu_cxx17__normal_iteratorIPlSt6vectorIlSaIlEEEplEl
	movq	%rax, %rdx
	movq	-8(%rbp), %rax
	movq	%rdx, %rsi
	movq	%rax, %rdi
	call	_ZSt16__insertion_sortIN9__gnu_cxx17__normal_iteratorIPlSt6vectorIlSaIlEEEENS0_5__ops15_Iter_less_iterEEvT_S9_T0_
	leaq	-8(%rbp), %rax
	movl	$16, %esi
	movq	%rax, %rdi
	call	_ZNK9__gnu_cxx17__normal_iteratorIPlSt6vectorIlSaIlEEEplEl
	movq	%rax, %rdx
	movq	-16(%rbp), %rax
	movq	%rax, %rsi
	movq	%rdx, %rdi
	call	_ZSt26__unguarded_insertion_sortIN9__gnu_cxx17__normal_iteratorIPlSt6vectorIlSaIlEEEENS0_5__ops15_Iter_less_iterEEvT_S9_T0_
	jmp	.L285
.L283:
	movq	-16(%rbp), %rdx
	movq	-8(%rbp), %rax
	movq	%rdx, %rsi
	movq	%rax, %rdi
	call	_ZSt16__insertion_sortIN9__gnu_cxx17__normal_iteratorIPlSt6vectorIlSaIlEEEENS0_5__ops15_Iter_less_iterEEvT_S9_T0_
.L285:
	nop
	leave
	.cfi_def_cfa 7, 8
	ret
	.cfi_endproc
.LFE3087:
	.size	_ZSt22__final_insertion_sortIN9__gnu_cxx17__normal_iteratorIPlSt6vectorIlSaIlEEEENS0_5__ops15_Iter_less_iterEEvT_S9_T0_, .-_ZSt22__final_insertion_sortIN9__gnu_cxx17__normal_iteratorIPlSt6vectorIlSaIlEEEENS0_5__ops15_Iter_less_iterEEvT_S9_T0_
	.section	.text._ZN9__gnu_cxx16__aligned_membufIcE7_M_addrEv,"axG",@progbits,_ZN9__gnu_cxx16__aligned_membufIcE7_M_addrEv,comdat
	.align 2
	.weak	_ZN9__gnu_cxx16__aligned_membufIcE7_M_addrEv
	.type	_ZN9__gnu_cxx16__aligned_membufIcE7_M_addrEv, @function
_ZN9__gnu_cxx16__aligned_membufIcE7_M_addrEv:
.LFB3122:
	.cfi_startproc
	endbr64
	pushq	%rbp
	.cfi_def_cfa_offset 16
	.cfi_offset 6, -16
	movq	%rsp, %rbp
	.cfi_def_cfa_register 6
	movq	%rdi, -8(%rbp)
	movq	-8(%rbp), %rax
	popq	%rbp
	.cfi_def_cfa 7, 8
	ret
	.cfi_endproc
.LFE3122:
	.size	_ZN9__gnu_cxx16__aligned_membufIcE7_M_addrEv, .-_ZN9__gnu_cxx16__aligned_membufIcE7_M_addrEv
	.section	.text._ZNSt7__cxx1110_List_baseIcSaIcEE11_M_get_nodeEv,"axG",@progbits,_ZNSt7__cxx1110_List_baseIcSaIcEE11_M_get_nodeEv,comdat
	.align 2
	.weak	_ZNSt7__cxx1110_List_baseIcSaIcEE11_M_get_nodeEv
	.type	_ZNSt7__cxx1110_List_baseIcSaIcEE11_M_get_nodeEv, @function
_ZNSt7__cxx1110_List_baseIcSaIcEE11_M_get_nodeEv:
.LFB3123:
	.cfi_startproc
	endbr64
	pushq	%rbp
	.cfi_def_cfa_offset 16
	.cfi_offset 6, -16
	movq	%rsp, %rbp
	.cfi_def_cfa_register 6
	subq	$16, %rsp
	movq	%rdi, -8(%rbp)
	movq	-8(%rbp), %rax
	movl	$1, %esi
	movq	%rax, %rdi
	call	_ZNSt16allocator_traitsISaISt10_List_nodeIcEEE8allocateERS2_m
	leave
	.cfi_def_cfa 7, 8
	ret
	.cfi_endproc
.LFE3123:
	.size	_ZNSt7__cxx1110_List_baseIcSaIcEE11_M_get_nodeEv, .-_ZNSt7__cxx1110_List_baseIcSaIcEE11_M_get_nodeEv
	.section	.text._ZNSt15__allocated_ptrISaISt10_List_nodeIcEEEC2ERS2_PS1_,"axG",@progbits,_ZNSt15__allocated_ptrISaISt10_List_nodeIcEEEC5ERS2_PS1_,comdat
	.align 2
	.weak	_ZNSt15__allocated_ptrISaISt10_List_nodeIcEEEC2ERS2_PS1_
	.type	_ZNSt15__allocated_ptrISaISt10_List_nodeIcEEEC2ERS2_PS1_, @function
_ZNSt15__allocated_ptrISaISt10_List_nodeIcEEEC2ERS2_PS1_:
.LFB3125:
	.cfi_startproc
	endbr64
	pushq	%rbp
	.cfi_def_cfa_offset 16
	.cfi_offset 6, -16
	movq	%rsp, %rbp
	.cfi_def_cfa_register 6
	subq	$32, %rsp
	movq	%rdi, -8(%rbp)
	movq	%rsi, -16(%rbp)
	movq	%rdx, -24(%rbp)
	movq	-16(%rbp), %rax
	movq	%rax, %rdi
	call	_ZSt11__addressofISaISt10_List_nodeIcEEEPT_RS3_
	movq	-8(%rbp), %rdx
	movq	%rax, (%rdx)
	movq	-8(%rbp), %rax
	movq	-24(%rbp), %rdx
	movq	%rdx, 8(%rax)
	nop
	leave
	.cfi_def_cfa 7, 8
	ret
	.cfi_endproc
.LFE3125:
	.size	_ZNSt15__allocated_ptrISaISt10_List_nodeIcEEEC2ERS2_PS1_, .-_ZNSt15__allocated_ptrISaISt10_List_nodeIcEEEC2ERS2_PS1_
	.weak	_ZNSt15__allocated_ptrISaISt10_List_nodeIcEEEC1ERS2_PS1_
	.set	_ZNSt15__allocated_ptrISaISt10_List_nodeIcEEEC1ERS2_PS1_,_ZNSt15__allocated_ptrISaISt10_List_nodeIcEEEC2ERS2_PS1_
	.section	.text._ZNSt15__allocated_ptrISaISt10_List_nodeIcEEED2Ev,"axG",@progbits,_ZNSt15__allocated_ptrISaISt10_List_nodeIcEEED5Ev,comdat
	.align 2
	.weak	_ZNSt15__allocated_ptrISaISt10_List_nodeIcEEED2Ev
	.type	_ZNSt15__allocated_ptrISaISt10_List_nodeIcEEED2Ev, @function
_ZNSt15__allocated_ptrISaISt10_List_nodeIcEEED2Ev:
.LFB3128:
	.cfi_startproc
	.cfi_personality 0x9b,DW.ref.__gxx_personality_v0
	.cfi_lsda 0x1b,.LLSDA3128
	endbr64
	pushq	%rbp
	.cfi_def_cfa_offset 16
	.cfi_offset 6, -16
	movq	%rsp, %rbp
	.cfi_def_cfa_register 6
	subq	$16, %rsp
	movq	%rdi, -8(%rbp)
	movq	-8(%rbp), %rax
	movq	8(%rax), %rax
	testq	%rax, %rax
	je	.L293
	movq	-8(%rbp), %rax
	movq	8(%rax), %rcx
	movq	-8(%rbp), %rax
	movq	(%rax), %rax
	movl	$1, %edx
	movq	%rcx, %rsi
	movq	%rax, %rdi
	call	_ZNSt16allocator_traitsISaISt10_List_nodeIcEEE10deallocateERS2_PS1_m
.L293:
	nop
	leave
	.cfi_def_cfa 7, 8
	ret
	.cfi_endproc
.LFE3128:
	.section	.gcc_except_table
.LLSDA3128:
	.byte	0xff
	.byte	0xff
	.byte	0x1
	.uleb128 .LLSDACSE3128-.LLSDACSB3128
.LLSDACSB3128:
.LLSDACSE3128:
	.section	.text._ZNSt15__allocated_ptrISaISt10_List_nodeIcEEED2Ev,"axG",@progbits,_ZNSt15__allocated_ptrISaISt10_List_nodeIcEEED5Ev,comdat
	.size	_ZNSt15__allocated_ptrISaISt10_List_nodeIcEEED2Ev, .-_ZNSt15__allocated_ptrISaISt10_List_nodeIcEEED2Ev
	.weak	_ZNSt15__allocated_ptrISaISt10_List_nodeIcEEED1Ev
	.set	_ZNSt15__allocated_ptrISaISt10_List_nodeIcEEED1Ev,_ZNSt15__allocated_ptrISaISt10_List_nodeIcEEED2Ev
	.section	.text._ZNSt16allocator_traitsISaISt10_List_nodeIcEEE9constructIcJRKcEEEvRS2_PT_DpOT0_,"axG",@progbits,_ZNSt16allocator_traitsISaISt10_List_nodeIcEEE9constructIcJRKcEEEvRS2_PT_DpOT0_,comdat
	.weak	_ZNSt16allocator_traitsISaISt10_List_nodeIcEEE9constructIcJRKcEEEvRS2_PT_DpOT0_
	.type	_ZNSt16allocator_traitsISaISt10_List_nodeIcEEE9constructIcJRKcEEEvRS2_PT_DpOT0_, @function
_ZNSt16allocator_traitsISaISt10_List_nodeIcEEE9constructIcJRKcEEEvRS2_PT_DpOT0_:
.LFB3130:
	.cfi_startproc
	endbr64
	pushq	%rbp
	.cfi_def_cfa_offset 16
	.cfi_offset 6, -16
	movq	%rsp, %rbp
	.cfi_def_cfa_register 6
	subq	$32, %rsp
	movq	%rdi, -8(%rbp)
	movq	%rsi, -16(%rbp)
	movq	%rdx, -24(%rbp)
	movq	-24(%rbp), %rax
	movq	%rax, %rdi
	call	_ZSt7forwardIRKcEOT_RNSt16remove_referenceIS2_E4typeE
	movq	%rax, %rdx
	movq	-16(%rbp), %rcx
	movq	-8(%rbp), %rax
	movq	%rcx, %rsi
	movq	%rax, %rdi
	call	_ZN9__gnu_cxx13new_allocatorISt10_List_nodeIcEE9constructIcJRKcEEEvPT_DpOT0_
	nop
	leave
	.cfi_def_cfa 7, 8
	ret
	.cfi_endproc
.LFE3130:
	.size	_ZNSt16allocator_traitsISaISt10_List_nodeIcEEE9constructIcJRKcEEEvRS2_PT_DpOT0_, .-_ZNSt16allocator_traitsISaISt10_List_nodeIcEEE9constructIcJRKcEEEvRS2_PT_DpOT0_
	.section	.text._ZNSt15__allocated_ptrISaISt10_List_nodeIcEEEaSEDn,"axG",@progbits,_ZNSt15__allocated_ptrISaISt10_List_nodeIcEEEaSEDn,comdat
	.align 2
	.weak	_ZNSt15__allocated_ptrISaISt10_List_nodeIcEEEaSEDn
	.type	_ZNSt15__allocated_ptrISaISt10_List_nodeIcEEEaSEDn, @function
_ZNSt15__allocated_ptrISaISt10_List_nodeIcEEEaSEDn:
.LFB3131:
	.cfi_startproc
	endbr64
	pushq	%rbp
	.cfi_def_cfa_offset 16
	.cfi_offset 6, -16
	movq	%rsp, %rbp
	.cfi_def_cfa_register 6
	movq	%rdi, -8(%rbp)
	movq	%rsi, -16(%rbp)
	movq	-8(%rbp), %rax
	movq	$0, 8(%rax)
	movq	-8(%rbp), %rax
	popq	%rbp
	.cfi_def_cfa 7, 8
	ret
	.cfi_endproc
.LFE3131:
	.size	_ZNSt15__allocated_ptrISaISt10_List_nodeIcEEEaSEDn, .-_ZNSt15__allocated_ptrISaISt10_List_nodeIcEEEaSEDn
	.section	.text._ZN9__gnu_cxx13new_allocatorIlE9constructIlJlEEEvPT_DpOT0_,"axG",@progbits,_ZN9__gnu_cxx13new_allocatorIlE9constructIlJlEEEvPT_DpOT0_,comdat
	.align 2
	.weak	_ZN9__gnu_cxx13new_allocatorIlE9constructIlJlEEEvPT_DpOT0_
	.type	_ZN9__gnu_cxx13new_allocatorIlE9constructIlJlEEEvPT_DpOT0_, @function
_ZN9__gnu_cxx13new_allocatorIlE9constructIlJlEEEvPT_DpOT0_:
.LFB3132:
	.cfi_startproc
	endbr64
	pushq	%rbp
	.cfi_def_cfa_offset 16
	.cfi_offset 6, -16
	movq	%rsp, %rbp
	.cfi_def_cfa_register 6
	pushq	%rbx
	subq	$40, %rsp
	.cfi_offset 3, -24
	movq	%rdi, -24(%rbp)
	movq	%rsi, -32(%rbp)
	movq	%rdx, -40(%rbp)
	movq	-40(%rbp), %rax
	movq	%rax, %rdi
	call	_ZSt7forwardIlEOT_RNSt16remove_referenceIS0_E4typeE
	movq	(%rax), %rbx
	movq	-32(%rbp), %rax
	movq	%rax, %rsi
	movl	$8, %edi
	call	_ZnwmPv
	movq	%rbx, (%rax)
	nop
	addq	$40, %rsp
	popq	%rbx
	popq	%rbp
	.cfi_def_cfa 7, 8
	ret
	.cfi_endproc
.LFE3132:
	.size	_ZN9__gnu_cxx13new_allocatorIlE9constructIlJlEEEvPT_DpOT0_, .-_ZN9__gnu_cxx13new_allocatorIlE9constructIlJlEEEvPT_DpOT0_
	.section	.text._ZN9__gnu_cxx13new_allocatorISt10_List_nodeIcEE7destroyIcEEvPT_,"axG",@progbits,_ZN9__gnu_cxx13new_allocatorISt10_List_nodeIcEE7destroyIcEEvPT_,comdat
	.align 2
	.weak	_ZN9__gnu_cxx13new_allocatorISt10_List_nodeIcEE7destroyIcEEvPT_
	.type	_ZN9__gnu_cxx13new_allocatorISt10_List_nodeIcEE7destroyIcEEvPT_, @function
_ZN9__gnu_cxx13new_allocatorISt10_List_nodeIcEE7destroyIcEEvPT_:
.LFB3133:
	.cfi_startproc
	endbr64
	pushq	%rbp
	.cfi_def_cfa_offset 16
	.cfi_offset 6, -16
	movq	%rsp, %rbp
	.cfi_def_cfa_register 6
	movq	%rdi, -8(%rbp)
	movq	%rsi, -16(%rbp)
	nop
	popq	%rbp
	.cfi_def_cfa 7, 8
	ret
	.cfi_endproc
.LFE3133:
	.size	_ZN9__gnu_cxx13new_allocatorISt10_List_nodeIcEE7destroyIcEEvPT_, .-_ZN9__gnu_cxx13new_allocatorISt10_List_nodeIcEE7destroyIcEEvPT_
	.section	.text._ZNSt16allocator_traitsISaISt10_List_nodeIcEEE10deallocateERS2_PS1_m,"axG",@progbits,_ZNSt16allocator_traitsISaISt10_List_nodeIcEEE10deallocateERS2_PS1_m,comdat
	.weak	_ZNSt16allocator_traitsISaISt10_List_nodeIcEEE10deallocateERS2_PS1_m
	.type	_ZNSt16allocator_traitsISaISt10_List_nodeIcEEE10deallocateERS2_PS1_m, @function
_ZNSt16allocator_traitsISaISt10_List_nodeIcEEE10deallocateERS2_PS1_m:
.LFB3134:
	.cfi_startproc
	endbr64
	pushq	%rbp
	.cfi_def_cfa_offset 16
	.cfi_offset 6, -16
	movq	%rsp, %rbp
	.cfi_def_cfa_register 6
	subq	$32, %rsp
	movq	%rdi, -8(%rbp)
	movq	%rsi, -16(%rbp)
	movq	%rdx, -24(%rbp)
	movq	-24(%rbp), %rdx
	movq	-16(%rbp), %rcx
	movq	-8(%rbp), %rax
	movq	%rcx, %rsi
	movq	%rax, %rdi
	call	_ZN9__gnu_cxx13new_allocatorISt10_List_nodeIcEE10deallocateEPS2_m
	nop
	leave
	.cfi_def_cfa 7, 8
	ret
	.cfi_endproc
.LFE3134:
	.size	_ZNSt16allocator_traitsISaISt10_List_nodeIcEEE10deallocateERS2_PS1_m, .-_ZNSt16allocator_traitsISaISt10_List_nodeIcEEE10deallocateERS2_PS1_m
	.section	.text._ZN9__gnu_cxx13new_allocatorISt10_List_nodeIlEE7destroyIlEEvPT_,"axG",@progbits,_ZN9__gnu_cxx13new_allocatorISt10_List_nodeIlEE7destroyIlEEvPT_,comdat
	.align 2
	.weak	_ZN9__gnu_cxx13new_allocatorISt10_List_nodeIlEE7destroyIlEEvPT_
	.type	_ZN9__gnu_cxx13new_allocatorISt10_List_nodeIlEE7destroyIlEEvPT_, @function
_ZN9__gnu_cxx13new_allocatorISt10_List_nodeIlEE7destroyIlEEvPT_:
.LFB3135:
	.cfi_startproc
	endbr64
	pushq	%rbp
	.cfi_def_cfa_offset 16
	.cfi_offset 6, -16
	movq	%rsp, %rbp
	.cfi_def_cfa_register 6
	movq	%rdi, -8(%rbp)
	movq	%rsi, -16(%rbp)
	nop
	popq	%rbp
	.cfi_def_cfa 7, 8
	ret
	.cfi_endproc
.LFE3135:
	.size	_ZN9__gnu_cxx13new_allocatorISt10_List_nodeIlEE7destroyIlEEvPT_, .-_ZN9__gnu_cxx13new_allocatorISt10_List_nodeIlEE7destroyIlEEvPT_
	.section	.text._ZNSt16allocator_traitsISaISt10_List_nodeIlEEE10deallocateERS2_PS1_m,"axG",@progbits,_ZNSt16allocator_traitsISaISt10_List_nodeIlEEE10deallocateERS2_PS1_m,comdat
	.weak	_ZNSt16allocator_traitsISaISt10_List_nodeIlEEE10deallocateERS2_PS1_m
	.type	_ZNSt16allocator_traitsISaISt10_List_nodeIlEEE10deallocateERS2_PS1_m, @function
_ZNSt16allocator_traitsISaISt10_List_nodeIlEEE10deallocateERS2_PS1_m:
.LFB3136:
	.cfi_startproc
	endbr64
	pushq	%rbp
	.cfi_def_cfa_offset 16
	.cfi_offset 6, -16
	movq	%rsp, %rbp
	.cfi_def_cfa_register 6
	subq	$32, %rsp
	movq	%rdi, -8(%rbp)
	movq	%rsi, -16(%rbp)
	movq	%rdx, -24(%rbp)
	movq	-24(%rbp), %rdx
	movq	-16(%rbp), %rcx
	movq	-8(%rbp), %rax
	movq	%rcx, %rsi
	movq	%rax, %rdi
	call	_ZN9__gnu_cxx13new_allocatorISt10_List_nodeIlEE10deallocateEPS2_m
	nop
	leave
	.cfi_def_cfa 7, 8
	ret
	.cfi_endproc
.LFE3136:
	.size	_ZNSt16allocator_traitsISaISt10_List_nodeIlEEE10deallocateERS2_PS1_m, .-_ZNSt16allocator_traitsISaISt10_List_nodeIlEEE10deallocateERS2_PS1_m
	.section	.text._ZNSt7__cxx1110_List_baseIlSaIlEE11_M_get_nodeEv,"axG",@progbits,_ZNSt7__cxx1110_List_baseIlSaIlEE11_M_get_nodeEv,comdat
	.align 2
	.weak	_ZNSt7__cxx1110_List_baseIlSaIlEE11_M_get_nodeEv
	.type	_ZNSt7__cxx1110_List_baseIlSaIlEE11_M_get_nodeEv, @function
_ZNSt7__cxx1110_List_baseIlSaIlEE11_M_get_nodeEv:
.LFB3137:
	.cfi_startproc
	endbr64
	pushq	%rbp
	.cfi_def_cfa_offset 16
	.cfi_offset 6, -16
	movq	%rsp, %rbp
	.cfi_def_cfa_register 6
	subq	$16, %rsp
	movq	%rdi, -8(%rbp)
	movq	-8(%rbp), %rax
	movl	$1, %esi
	movq	%rax, %rdi
	call	_ZNSt16allocator_traitsISaISt10_List_nodeIlEEE8allocateERS2_m
	leave
	.cfi_def_cfa 7, 8
	ret
	.cfi_endproc
.LFE3137:
	.size	_ZNSt7__cxx1110_List_baseIlSaIlEE11_M_get_nodeEv, .-_ZNSt7__cxx1110_List_baseIlSaIlEE11_M_get_nodeEv
	.section	.text._ZNSt15__allocated_ptrISaISt10_List_nodeIlEEEC2ERS2_PS1_,"axG",@progbits,_ZNSt15__allocated_ptrISaISt10_List_nodeIlEEEC5ERS2_PS1_,comdat
	.align 2
	.weak	_ZNSt15__allocated_ptrISaISt10_List_nodeIlEEEC2ERS2_PS1_
	.type	_ZNSt15__allocated_ptrISaISt10_List_nodeIlEEEC2ERS2_PS1_, @function
_ZNSt15__allocated_ptrISaISt10_List_nodeIlEEEC2ERS2_PS1_:
.LFB3139:
	.cfi_startproc
	endbr64
	pushq	%rbp
	.cfi_def_cfa_offset 16
	.cfi_offset 6, -16
	movq	%rsp, %rbp
	.cfi_def_cfa_register 6
	subq	$32, %rsp
	movq	%rdi, -8(%rbp)
	movq	%rsi, -16(%rbp)
	movq	%rdx, -24(%rbp)
	movq	-16(%rbp), %rax
	movq	%rax, %rdi
	call	_ZSt11__addressofISaISt10_List_nodeIlEEEPT_RS3_
	movq	-8(%rbp), %rdx
	movq	%rax, (%rdx)
	movq	-8(%rbp), %rax
	movq	-24(%rbp), %rdx
	movq	%rdx, 8(%rax)
	nop
	leave
	.cfi_def_cfa 7, 8
	ret
	.cfi_endproc
.LFE3139:
	.size	_ZNSt15__allocated_ptrISaISt10_List_nodeIlEEEC2ERS2_PS1_, .-_ZNSt15__allocated_ptrISaISt10_List_nodeIlEEEC2ERS2_PS1_
	.weak	_ZNSt15__allocated_ptrISaISt10_List_nodeIlEEEC1ERS2_PS1_
	.set	_ZNSt15__allocated_ptrISaISt10_List_nodeIlEEEC1ERS2_PS1_,_ZNSt15__allocated_ptrISaISt10_List_nodeIlEEEC2ERS2_PS1_
	.section	.text._ZNSt15__allocated_ptrISaISt10_List_nodeIlEEED2Ev,"axG",@progbits,_ZNSt15__allocated_ptrISaISt10_List_nodeIlEEED5Ev,comdat
	.align 2
	.weak	_ZNSt15__allocated_ptrISaISt10_List_nodeIlEEED2Ev
	.type	_ZNSt15__allocated_ptrISaISt10_List_nodeIlEEED2Ev, @function
_ZNSt15__allocated_ptrISaISt10_List_nodeIlEEED2Ev:
.LFB3142:
	.cfi_startproc
	endbr64
	pushq	%rbp
	.cfi_def_cfa_offset 16
	.cfi_offset 6, -16
	movq	%rsp, %rbp
	.cfi_def_cfa_register 6
	subq	$16, %rsp
	movq	%rdi, -8(%rbp)
	movq	-8(%rbp), %rax
	movq	8(%rax), %rax
	testq	%rax, %rax
	je	.L307
	movq	-8(%rbp), %rax
	movq	8(%rax), %rcx
	movq	-8(%rbp), %rax
	movq	(%rax), %rax
	movl	$1, %edx
	movq	%rcx, %rsi
	movq	%rax, %rdi
	call	_ZNSt16allocator_traitsISaISt10_List_nodeIlEEE10deallocateERS2_PS1_m
.L307:
	nop
	leave
	.cfi_def_cfa 7, 8
	ret
	.cfi_endproc
.LFE3142:
	.size	_ZNSt15__allocated_ptrISaISt10_List_nodeIlEEED2Ev, .-_ZNSt15__allocated_ptrISaISt10_List_nodeIlEEED2Ev
	.weak	_ZNSt15__allocated_ptrISaISt10_List_nodeIlEEED1Ev
	.set	_ZNSt15__allocated_ptrISaISt10_List_nodeIlEEED1Ev,_ZNSt15__allocated_ptrISaISt10_List_nodeIlEEED2Ev
	.section	.text._ZNSt16allocator_traitsISaISt10_List_nodeIlEEE9constructIlJRKlEEEvRS2_PT_DpOT0_,"axG",@progbits,_ZNSt16allocator_traitsISaISt10_List_nodeIlEEE9constructIlJRKlEEEvRS2_PT_DpOT0_,comdat
	.weak	_ZNSt16allocator_traitsISaISt10_List_nodeIlEEE9constructIlJRKlEEEvRS2_PT_DpOT0_
	.type	_ZNSt16allocator_traitsISaISt10_List_nodeIlEEE9constructIlJRKlEEEvRS2_PT_DpOT0_, @function
_ZNSt16allocator_traitsISaISt10_List_nodeIlEEE9constructIlJRKlEEEvRS2_PT_DpOT0_:
.LFB3144:
	.cfi_startproc
	endbr64
	pushq	%rbp
	.cfi_def_cfa_offset 16
	.cfi_offset 6, -16
	movq	%rsp, %rbp
	.cfi_def_cfa_register 6
	subq	$32, %rsp
	movq	%rdi, -8(%rbp)
	movq	%rsi, -16(%rbp)
	movq	%rdx, -24(%rbp)
	movq	-24(%rbp), %rax
	movq	%rax, %rdi
	call	_ZSt7forwardIRKlEOT_RNSt16remove_referenceIS2_E4typeE
	movq	%rax, %rdx
	movq	-16(%rbp), %rcx
	movq	-8(%rbp), %rax
	movq	%rcx, %rsi
	movq	%rax, %rdi
	call	_ZN9__gnu_cxx13new_allocatorISt10_List_nodeIlEE9constructIlJRKlEEEvPT_DpOT0_
	nop
	leave
	.cfi_def_cfa 7, 8
	ret
	.cfi_endproc
.LFE3144:
	.size	_ZNSt16allocator_traitsISaISt10_List_nodeIlEEE9constructIlJRKlEEEvRS2_PT_DpOT0_, .-_ZNSt16allocator_traitsISaISt10_List_nodeIlEEE9constructIlJRKlEEEvRS2_PT_DpOT0_
	.section	.text._ZNSt15__allocated_ptrISaISt10_List_nodeIlEEEaSEDn,"axG",@progbits,_ZNSt15__allocated_ptrISaISt10_List_nodeIlEEEaSEDn,comdat
	.align 2
	.weak	_ZNSt15__allocated_ptrISaISt10_List_nodeIlEEEaSEDn
	.type	_ZNSt15__allocated_ptrISaISt10_List_nodeIlEEEaSEDn, @function
_ZNSt15__allocated_ptrISaISt10_List_nodeIlEEEaSEDn:
.LFB3145:
	.cfi_startproc
	endbr64
	pushq	%rbp
	.cfi_def_cfa_offset 16
	.cfi_offset 6, -16
	movq	%rsp, %rbp
	.cfi_def_cfa_register 6
	movq	%rdi, -8(%rbp)
	movq	%rsi, -16(%rbp)
	movq	-8(%rbp), %rax
	movq	$0, 8(%rax)
	movq	-8(%rbp), %rax
	popq	%rbp
	.cfi_def_cfa 7, 8
	ret
	.cfi_endproc
.LFE3145:
	.size	_ZNSt15__allocated_ptrISaISt10_List_nodeIlEEEaSEDn, .-_ZNSt15__allocated_ptrISaISt10_List_nodeIlEEEaSEDn
	.section	.text._ZN9__gnu_cxx16__aligned_membufIlE7_M_addrEv,"axG",@progbits,_ZN9__gnu_cxx16__aligned_membufIlE7_M_addrEv,comdat
	.align 2
	.weak	_ZN9__gnu_cxx16__aligned_membufIlE7_M_addrEv
	.type	_ZN9__gnu_cxx16__aligned_membufIlE7_M_addrEv, @function
_ZN9__gnu_cxx16__aligned_membufIlE7_M_addrEv:
.LFB3146:
	.cfi_startproc
	endbr64
	pushq	%rbp
	.cfi_def_cfa_offset 16
	.cfi_offset 6, -16
	movq	%rsp, %rbp
	.cfi_def_cfa_register 6
	movq	%rdi, -8(%rbp)
	movq	-8(%rbp), %rax
	popq	%rbp
	.cfi_def_cfa 7, 8
	ret
	.cfi_endproc
.LFE3146:
	.size	_ZN9__gnu_cxx16__aligned_membufIlE7_M_addrEv, .-_ZN9__gnu_cxx16__aligned_membufIlE7_M_addrEv
	.section	.text._ZNKSt6vectorIlSaIlEE8max_sizeEv,"axG",@progbits,_ZNKSt6vectorIlSaIlEE8max_sizeEv,comdat
	.align 2
	.weak	_ZNKSt6vectorIlSaIlEE8max_sizeEv
	.type	_ZNKSt6vectorIlSaIlEE8max_sizeEv, @function
_ZNKSt6vectorIlSaIlEE8max_sizeEv:
.LFB3147:
	.cfi_startproc
	endbr64
	pushq	%rbp
	.cfi_def_cfa_offset 16
	.cfi_offset 6, -16
	movq	%rsp, %rbp
	.cfi_def_cfa_register 6
	subq	$16, %rsp
	movq	%rdi, -8(%rbp)
	movq	-8(%rbp), %rax
	movq	%rax, %rdi
	call	_ZNKSt12_Vector_baseIlSaIlEE19_M_get_Tp_allocatorEv
	movq	%rax, %rdi
	call	_ZNSt6vectorIlSaIlEE11_S_max_sizeERKS0_
	leave
	.cfi_def_cfa 7, 8
	ret
	.cfi_endproc
.LFE3147:
	.size	_ZNKSt6vectorIlSaIlEE8max_sizeEv, .-_ZNKSt6vectorIlSaIlEE8max_sizeEv
	.section	.text._ZSt3maxImERKT_S2_S2_,"axG",@progbits,_ZSt3maxImERKT_S2_S2_,comdat
	.weak	_ZSt3maxImERKT_S2_S2_
	.type	_ZSt3maxImERKT_S2_S2_, @function
_ZSt3maxImERKT_S2_S2_:
.LFB3148:
	.cfi_startproc
	endbr64
	pushq	%rbp
	.cfi_def_cfa_offset 16
	.cfi_offset 6, -16
	movq	%rsp, %rbp
	.cfi_def_cfa_register 6
	movq	%rdi, -8(%rbp)
	movq	%rsi, -16(%rbp)
	movq	-8(%rbp), %rax
	movq	(%rax), %rdx
	movq	-16(%rbp), %rax
	movq	(%rax), %rax
	cmpq	%rax, %rdx
	jnb	.L316
	movq	-16(%rbp), %rax
	jmp	.L317
.L316:
	movq	-8(%rbp), %rax
.L317:
	popq	%rbp
	.cfi_def_cfa 7, 8
	ret
	.cfi_endproc
.LFE3148:
	.size	_ZSt3maxImERKT_S2_S2_, .-_ZSt3maxImERKT_S2_S2_
	.section	.text._ZNSt16allocator_traitsISaIlEE8allocateERS0_m,"axG",@progbits,_ZNSt16allocator_traitsISaIlEE8allocateERS0_m,comdat
	.weak	_ZNSt16allocator_traitsISaIlEE8allocateERS0_m
	.type	_ZNSt16allocator_traitsISaIlEE8allocateERS0_m, @function
_ZNSt16allocator_traitsISaIlEE8allocateERS0_m:
.LFB3149:
	.cfi_startproc
	endbr64
	pushq	%rbp
	.cfi_def_cfa_offset 16
	.cfi_offset 6, -16
	movq	%rsp, %rbp
	.cfi_def_cfa_register 6
	subq	$16, %rsp
	movq	%rdi, -8(%rbp)
	movq	%rsi, -16(%rbp)
	movq	-16(%rbp), %rcx
	movq	-8(%rbp), %rax
	movl	$0, %edx
	movq	%rcx, %rsi
	movq	%rax, %rdi
	call	_ZN9__gnu_cxx13new_allocatorIlE8allocateEmPKv
	leave
	.cfi_def_cfa 7, 8
	ret
	.cfi_endproc
.LFE3149:
	.size	_ZNSt16allocator_traitsISaIlEE8allocateERS0_m, .-_ZNSt16allocator_traitsISaIlEE8allocateERS0_m
	.section	.text._ZNSt6vectorIlSaIlEE14_S_do_relocateEPlS2_S2_RS0_St17integral_constantIbLb1EE,"axG",@progbits,_ZNSt6vectorIlSaIlEE14_S_do_relocateEPlS2_S2_RS0_St17integral_constantIbLb1EE,comdat
	.weak	_ZNSt6vectorIlSaIlEE14_S_do_relocateEPlS2_S2_RS0_St17integral_constantIbLb1EE
	.type	_ZNSt6vectorIlSaIlEE14_S_do_relocateEPlS2_S2_RS0_St17integral_constantIbLb1EE, @function
_ZNSt6vectorIlSaIlEE14_S_do_relocateEPlS2_S2_RS0_St17integral_constantIbLb1EE:
.LFB3150:
	.cfi_startproc
	endbr64
	pushq	%rbp
	.cfi_def_cfa_offset 16
	.cfi_offset 6, -16
	movq	%rsp, %rbp
	.cfi_def_cfa_register 6
	subq	$32, %rsp
	movq	%rdi, -8(%rbp)
	movq	%rsi, -16(%rbp)
	movq	%rdx, -24(%rbp)
	movq	%rcx, -32(%rbp)
	movq	-32(%rbp), %rcx
	movq	-24(%rbp), %rdx
	movq	-16(%rbp), %rsi
	movq	-8(%rbp), %rax
	movq	%rax, %rdi
	call	_ZSt12__relocate_aIPlS0_SaIlEET0_T_S3_S2_RT1_
	leave
	.cfi_def_cfa 7, 8
	ret
	.cfi_endproc
.LFE3150:
	.size	_ZNSt6vectorIlSaIlEE14_S_do_relocateEPlS2_S2_RS0_St17integral_constantIbLb1EE, .-_ZNSt6vectorIlSaIlEE14_S_do_relocateEPlS2_S2_RS0_St17integral_constantIbLb1EE
	.section	.text._ZSt32__make_move_if_noexcept_iteratorIlSt13move_iteratorIPlEET0_PT_,"axG",@progbits,_ZSt32__make_move_if_noexcept_iteratorIlSt13move_iteratorIPlEET0_PT_,comdat
	.weak	_ZSt32__make_move_if_noexcept_iteratorIlSt13move_iteratorIPlEET0_PT_
	.type	_ZSt32__make_move_if_noexcept_iteratorIlSt13move_iteratorIPlEET0_PT_, @function
_ZSt32__make_move_if_noexcept_iteratorIlSt13move_iteratorIPlEET0_PT_:
.LFB3151:
	.cfi_startproc
	endbr64
	pushq	%rbp
	.cfi_def_cfa_offset 16
	.cfi_offset 6, -16
	movq	%rsp, %rbp
	.cfi_def_cfa_register 6
	subq	$32, %rsp
	movq	%rdi, -24(%rbp)
	movq	%fs:40, %rax
	movq	%rax, -8(%rbp)
	xorl	%eax, %eax
	movq	-24(%rbp), %rdx
	leaq	-16(%rbp), %rax
	movq	%rdx, %rsi
	movq	%rax, %rdi
	call	_ZNSt13move_iteratorIPlEC1ES0_
	movq	-16(%rbp), %rax
	movq	-8(%rbp), %rcx
	xorq	%fs:40, %rcx
	je	.L324
	call	__stack_chk_fail@PLT
.L324:
	leave
	.cfi_def_cfa 7, 8
	ret
	.cfi_endproc
.LFE3151:
	.size	_ZSt32__make_move_if_noexcept_iteratorIlSt13move_iteratorIPlEET0_PT_, .-_ZSt32__make_move_if_noexcept_iteratorIlSt13move_iteratorIPlEET0_PT_
	.section	.text._ZSt22__uninitialized_copy_aISt13move_iteratorIPlES1_lET0_T_S4_S3_RSaIT1_E,"axG",@progbits,_ZSt22__uninitialized_copy_aISt13move_iteratorIPlES1_lET0_T_S4_S3_RSaIT1_E,comdat
	.weak	_ZSt22__uninitialized_copy_aISt13move_iteratorIPlES1_lET0_T_S4_S3_RSaIT1_E
	.type	_ZSt22__uninitialized_copy_aISt13move_iteratorIPlES1_lET0_T_S4_S3_RSaIT1_E, @function
_ZSt22__uninitialized_copy_aISt13move_iteratorIPlES1_lET0_T_S4_S3_RSaIT1_E:
.LFB3152:
	.cfi_startproc
	endbr64
	pushq	%rbp
	.cfi_def_cfa_offset 16
	.cfi_offset 6, -16
	movq	%rsp, %rbp
	.cfi_def_cfa_register 6
	subq	$32, %rsp
	movq	%rdi, -8(%rbp)
	movq	%rsi, -16(%rbp)
	movq	%rdx, -24(%rbp)
	movq	%rcx, -32(%rbp)
	movq	-24(%rbp), %rdx
	movq	-16(%rbp), %rcx
	movq	-8(%rbp), %rax
	movq	%rcx, %rsi
	movq	%rax, %rdi
	call	_ZSt18uninitialized_copyISt13move_iteratorIPlES1_ET0_T_S4_S3_
	leave
	.cfi_def_cfa 7, 8
	ret
	.cfi_endproc
.LFE3152:
	.size	_ZSt22__uninitialized_copy_aISt13move_iteratorIPlES1_lET0_T_S4_S3_RSaIT1_E, .-_ZSt22__uninitialized_copy_aISt13move_iteratorIPlES1_lET0_T_S4_S3_RSaIT1_E
	.section	.text._ZN9__gnu_cxx13new_allocatorIlE7destroyIlEEvPT_,"axG",@progbits,_ZN9__gnu_cxx13new_allocatorIlE7destroyIlEEvPT_,comdat
	.align 2
	.weak	_ZN9__gnu_cxx13new_allocatorIlE7destroyIlEEvPT_
	.type	_ZN9__gnu_cxx13new_allocatorIlE7destroyIlEEvPT_, @function
_ZN9__gnu_cxx13new_allocatorIlE7destroyIlEEvPT_:
.LFB3153:
	.cfi_startproc
	endbr64
	pushq	%rbp
	.cfi_def_cfa_offset 16
	.cfi_offset 6, -16
	movq	%rsp, %rbp
	.cfi_def_cfa_register 6
	movq	%rdi, -8(%rbp)
	movq	%rsi, -16(%rbp)
	nop
	popq	%rbp
	.cfi_def_cfa 7, 8
	ret
	.cfi_endproc
.LFE3153:
	.size	_ZN9__gnu_cxx13new_allocatorIlE7destroyIlEEvPT_, .-_ZN9__gnu_cxx13new_allocatorIlE7destroyIlEEvPT_
	.section	.text._ZN9__gnu_cxx13new_allocatorIlE10deallocateEPlm,"axG",@progbits,_ZN9__gnu_cxx13new_allocatorIlE10deallocateEPlm,comdat
	.align 2
	.weak	_ZN9__gnu_cxx13new_allocatorIlE10deallocateEPlm
	.type	_ZN9__gnu_cxx13new_allocatorIlE10deallocateEPlm, @function
_ZN9__gnu_cxx13new_allocatorIlE10deallocateEPlm:
.LFB3154:
	.cfi_startproc
	endbr64
	pushq	%rbp
	.cfi_def_cfa_offset 16
	.cfi_offset 6, -16
	movq	%rsp, %rbp
	.cfi_def_cfa_register 6
	subq	$32, %rsp
	movq	%rdi, -8(%rbp)
	movq	%rsi, -16(%rbp)
	movq	%rdx, -24(%rbp)
	movq	-16(%rbp), %rax
	movq	%rax, %rdi
	call	_ZdlPv@PLT
	nop
	leave
	.cfi_def_cfa 7, 8
	ret
	.cfi_endproc
.LFE3154:
	.size	_ZN9__gnu_cxx13new_allocatorIlE10deallocateEPlm, .-_ZN9__gnu_cxx13new_allocatorIlE10deallocateEPlm
	.section	.text._ZNSt12_Destroy_auxILb1EE9__destroyIPlEEvT_S3_,"axG",@progbits,_ZNSt12_Destroy_auxILb1EE9__destroyIPlEEvT_S3_,comdat
	.weak	_ZNSt12_Destroy_auxILb1EE9__destroyIPlEEvT_S3_
	.type	_ZNSt12_Destroy_auxILb1EE9__destroyIPlEEvT_S3_, @function
_ZNSt12_Destroy_auxILb1EE9__destroyIPlEEvT_S3_:
.LFB3155:
	.cfi_startproc
	endbr64
	pushq	%rbp
	.cfi_def_cfa_offset 16
	.cfi_offset 6, -16
	movq	%rsp, %rbp
	.cfi_def_cfa_register 6
	movq	%rdi, -8(%rbp)
	movq	%rsi, -16(%rbp)
	nop
	popq	%rbp
	.cfi_def_cfa 7, 8
	ret
	.cfi_endproc
.LFE3155:
	.size	_ZNSt12_Destroy_auxILb1EE9__destroyIPlEEvT_S3_, .-_ZNSt12_Destroy_auxILb1EE9__destroyIPlEEvT_S3_
	.section	.text._ZSt14__partial_sortIN9__gnu_cxx17__normal_iteratorIPlSt6vectorIlSaIlEEEENS0_5__ops15_Iter_less_iterEEvT_S9_S9_T0_,"axG",@progbits,_ZSt14__partial_sortIN9__gnu_cxx17__normal_iteratorIPlSt6vectorIlSaIlEEEENS0_5__ops15_Iter_less_iterEEvT_S9_S9_T0_,comdat
	.weak	_ZSt14__partial_sortIN9__gnu_cxx17__normal_iteratorIPlSt6vectorIlSaIlEEEENS0_5__ops15_Iter_less_iterEEvT_S9_S9_T0_
	.type	_ZSt14__partial_sortIN9__gnu_cxx17__normal_iteratorIPlSt6vectorIlSaIlEEEENS0_5__ops15_Iter_less_iterEEvT_S9_S9_T0_, @function
_ZSt14__partial_sortIN9__gnu_cxx17__normal_iteratorIPlSt6vectorIlSaIlEEEENS0_5__ops15_Iter_less_iterEEvT_S9_S9_T0_:
.LFB3156:
	.cfi_startproc
	endbr64
	pushq	%rbp
	.cfi_def_cfa_offset 16
	.cfi_offset 6, -16
	movq	%rsp, %rbp
	.cfi_def_cfa_register 6
	subq	$32, %rsp
	movq	%rdi, -8(%rbp)
	movq	%rsi, -16(%rbp)
	movq	%rdx, -24(%rbp)
	movq	-24(%rbp), %rdx
	movq	-16(%rbp), %rcx
	movq	-8(%rbp), %rax
	movq	%rcx, %rsi
	movq	%rax, %rdi
	call	_ZSt13__heap_selectIN9__gnu_cxx17__normal_iteratorIPlSt6vectorIlSaIlEEEENS0_5__ops15_Iter_less_iterEEvT_S9_S9_T0_
	leaq	-25(%rbp), %rdx
	movq	-16(%rbp), %rcx
	movq	-8(%rbp), %rax
	movq	%rcx, %rsi
	movq	%rax, %rdi
	call	_ZSt11__sort_heapIN9__gnu_cxx17__normal_iteratorIPlSt6vectorIlSaIlEEEENS0_5__ops15_Iter_less_iterEEvT_S9_RT0_
	nop
	leave
	.cfi_def_cfa 7, 8
	ret
	.cfi_endproc
.LFE3156:
	.size	_ZSt14__partial_sortIN9__gnu_cxx17__normal_iteratorIPlSt6vectorIlSaIlEEEENS0_5__ops15_Iter_less_iterEEvT_S9_S9_T0_, .-_ZSt14__partial_sortIN9__gnu_cxx17__normal_iteratorIPlSt6vectorIlSaIlEEEENS0_5__ops15_Iter_less_iterEEvT_S9_S9_T0_
	.section	.text._ZSt27__unguarded_partition_pivotIN9__gnu_cxx17__normal_iteratorIPlSt6vectorIlSaIlEEEENS0_5__ops15_Iter_less_iterEET_S9_S9_T0_,"axG",@progbits,_ZSt27__unguarded_partition_pivotIN9__gnu_cxx17__normal_iteratorIPlSt6vectorIlSaIlEEEENS0_5__ops15_Iter_less_iterEET_S9_S9_T0_,comdat
	.weak	_ZSt27__unguarded_partition_pivotIN9__gnu_cxx17__normal_iteratorIPlSt6vectorIlSaIlEEEENS0_5__ops15_Iter_less_iterEET_S9_S9_T0_
	.type	_ZSt27__unguarded_partition_pivotIN9__gnu_cxx17__normal_iteratorIPlSt6vectorIlSaIlEEEENS0_5__ops15_Iter_less_iterEET_S9_S9_T0_, @function
_ZSt27__unguarded_partition_pivotIN9__gnu_cxx17__normal_iteratorIPlSt6vectorIlSaIlEEEENS0_5__ops15_Iter_less_iterEET_S9_S9_T0_:
.LFB3157:
	.cfi_startproc
	endbr64
	pushq	%rbp
	.cfi_def_cfa_offset 16
	.cfi_offset 6, -16
	movq	%rsp, %rbp
	.cfi_def_cfa_register 6
	pushq	%rbx
	subq	$56, %rsp
	.cfi_offset 3, -24
	movq	%rdi, -40(%rbp)
	movq	%rsi, -48(%rbp)
	movq	%fs:40, %rax
	movq	%rax, -24(%rbp)
	xorl	%eax, %eax
	leaq	-40(%rbp), %rdx
	leaq	-48(%rbp), %rax
	movq	%rdx, %rsi
	movq	%rax, %rdi
	call	_ZN9__gnu_cxxmiIPlSt6vectorIlSaIlEEEENS_17__normal_iteratorIT_T0_E15difference_typeERKS8_SB_
	movq	%rax, %rdx
	shrq	$63, %rdx
	addq	%rdx, %rax
	sarq	%rax
	movq	%rax, %rdx
	leaq	-40(%rbp), %rax
	movq	%rdx, %rsi
	movq	%rax, %rdi
	call	_ZNK9__gnu_cxx17__normal_iteratorIPlSt6vectorIlSaIlEEEplEl
	movq	%rax, -32(%rbp)
	leaq	-48(%rbp), %rax
	movl	$1, %esi
	movq	%rax, %rdi
	call	_ZNK9__gnu_cxx17__normal_iteratorIPlSt6vectorIlSaIlEEEmiEl
	movq	%rax, %rbx
	leaq	-40(%rbp), %rax
	movl	$1, %esi
	movq	%rax, %rdi
	call	_ZNK9__gnu_cxx17__normal_iteratorIPlSt6vectorIlSaIlEEEplEl
	movq	%rax, %rsi
	movq	-32(%rbp), %rdx
	movq	-40(%rbp), %rax
	movq	%rbx, %rcx
	movq	%rax, %rdi
	call	_ZSt22__move_median_to_firstIN9__gnu_cxx17__normal_iteratorIPlSt6vectorIlSaIlEEEENS0_5__ops15_Iter_less_iterEEvT_S9_S9_S9_T0_
	leaq	-40(%rbp), %rax
	movl	$1, %esi
	movq	%rax, %rdi
	call	_ZNK9__gnu_cxx17__normal_iteratorIPlSt6vectorIlSaIlEEEplEl
	movq	%rax, %rcx
	movq	-40(%rbp), %rdx
	movq	-48(%rbp), %rax
	movq	%rax, %rsi
	movq	%rcx, %rdi
	call	_ZSt21__unguarded_partitionIN9__gnu_cxx17__normal_iteratorIPlSt6vectorIlSaIlEEEENS0_5__ops15_Iter_less_iterEET_S9_S9_S9_T0_
	movq	-24(%rbp), %rbx
	xorq	%fs:40, %rbx
	je	.L333
	call	__stack_chk_fail@PLT
.L333:
	addq	$56, %rsp
	popq	%rbx
	popq	%rbp
	.cfi_def_cfa 7, 8
	ret
	.cfi_endproc
.LFE3157:
	.size	_ZSt27__unguarded_partition_pivotIN9__gnu_cxx17__normal_iteratorIPlSt6vectorIlSaIlEEEENS0_5__ops15_Iter_less_iterEET_S9_S9_T0_, .-_ZSt27__unguarded_partition_pivotIN9__gnu_cxx17__normal_iteratorIPlSt6vectorIlSaIlEEEENS0_5__ops15_Iter_less_iterEET_S9_S9_T0_
	.section	.text._ZNK9__gnu_cxx17__normal_iteratorIPlSt6vectorIlSaIlEEEplEl,"axG",@progbits,_ZNK9__gnu_cxx17__normal_iteratorIPlSt6vectorIlSaIlEEEplEl,comdat
	.align 2
	.weak	_ZNK9__gnu_cxx17__normal_iteratorIPlSt6vectorIlSaIlEEEplEl
	.type	_ZNK9__gnu_cxx17__normal_iteratorIPlSt6vectorIlSaIlEEEplEl, @function
_ZNK9__gnu_cxx17__normal_iteratorIPlSt6vectorIlSaIlEEEplEl:
.LFB3158:
	.cfi_startproc
	endbr64
	pushq	%rbp
	.cfi_def_cfa_offset 16
	.cfi_offset 6, -16
	movq	%rsp, %rbp
	.cfi_def_cfa_register 6
	subq	$48, %rsp
	movq	%rdi, -40(%rbp)
	movq	%rsi, -48(%rbp)
	movq	%fs:40, %rax
	movq	%rax, -8(%rbp)
	xorl	%eax, %eax
	movq	-40(%rbp), %rax
	movq	(%rax), %rax
	movq	-48(%rbp), %rdx
	salq	$3, %rdx
	addq	%rdx, %rax
	movq	%rax, -24(%rbp)
	leaq	-24(%rbp), %rdx
	leaq	-16(%rbp), %rax
	movq	%rdx, %rsi
	movq	%rax, %rdi
	call	_ZN9__gnu_cxx17__normal_iteratorIPlSt6vectorIlSaIlEEEC1ERKS1_
	movq	-16(%rbp), %rax
	movq	-8(%rbp), %rcx
	xorq	%fs:40, %rcx
	je	.L336
	call	__stack_chk_fail@PLT
.L336:
	leave
	.cfi_def_cfa 7, 8
	ret
	.cfi_endproc
.LFE3158:
	.size	_ZNK9__gnu_cxx17__normal_iteratorIPlSt6vectorIlSaIlEEEplEl, .-_ZNK9__gnu_cxx17__normal_iteratorIPlSt6vectorIlSaIlEEEplEl
	.section	.text._ZSt16__insertion_sortIN9__gnu_cxx17__normal_iteratorIPlSt6vectorIlSaIlEEEENS0_5__ops15_Iter_less_iterEEvT_S9_T0_,"axG",@progbits,_ZSt16__insertion_sortIN9__gnu_cxx17__normal_iteratorIPlSt6vectorIlSaIlEEEENS0_5__ops15_Iter_less_iterEEvT_S9_T0_,comdat
	.weak	_ZSt16__insertion_sortIN9__gnu_cxx17__normal_iteratorIPlSt6vectorIlSaIlEEEENS0_5__ops15_Iter_less_iterEEvT_S9_T0_
	.type	_ZSt16__insertion_sortIN9__gnu_cxx17__normal_iteratorIPlSt6vectorIlSaIlEEEENS0_5__ops15_Iter_less_iterEEvT_S9_T0_, @function
_ZSt16__insertion_sortIN9__gnu_cxx17__normal_iteratorIPlSt6vectorIlSaIlEEEENS0_5__ops15_Iter_less_iterEEvT_S9_T0_:
.LFB3159:
	.cfi_startproc
	endbr64
	pushq	%rbp
	.cfi_def_cfa_offset 16
	.cfi_offset 6, -16
	movq	%rsp, %rbp
	.cfi_def_cfa_register 6
	pushq	%rbx
	subq	$72, %rsp
	.cfi_offset 3, -24
	movq	%rdi, -56(%rbp)
	movq	%rsi, -64(%rbp)
	movq	%fs:40, %rax
	movq	%rax, -24(%rbp)
	xorl	%eax, %eax
	leaq	-64(%rbp), %rdx
	leaq	-56(%rbp), %rax
	movq	%rdx, %rsi
	movq	%rax, %rdi
	call	_ZN9__gnu_cxxeqIPlSt6vectorIlSaIlEEEEbRKNS_17__normal_iteratorIT_T0_EESA_
	testb	%al, %al
	jne	.L345
	leaq	-56(%rbp), %rax
	movl	$1, %esi
	movq	%rax, %rdi
	call	_ZNK9__gnu_cxx17__normal_iteratorIPlSt6vectorIlSaIlEEEplEl
	movq	%rax, -40(%rbp)
.L343:
	leaq	-64(%rbp), %rdx
	leaq	-40(%rbp), %rax
	movq	%rdx, %rsi
	movq	%rax, %rdi
	call	_ZN9__gnu_cxxneIPlSt6vectorIlSaIlEEEEbRKNS_17__normal_iteratorIT_T0_EESA_
	testb	%al, %al
	je	.L337
	movq	-56(%rbp), %rdx
	movq	-40(%rbp), %rcx
	leaq	-65(%rbp), %rax
	movq	%rcx, %rsi
	movq	%rax, %rdi
	call	_ZNK9__gnu_cxx5__ops15_Iter_less_iterclINS_17__normal_iteratorIPlSt6vectorIlSaIlEEEES8_EEbT_T0_
	testb	%al, %al
	je	.L341
	leaq	-40(%rbp), %rax
	movq	%rax, %rdi
	call	_ZNK9__gnu_cxx17__normal_iteratorIPlSt6vectorIlSaIlEEEdeEv
	movq	%rax, %rdi
	call	_ZSt4moveIRlEONSt16remove_referenceIT_E4typeEOS2_
	movq	(%rax), %rax
	movq	%rax, -32(%rbp)
	leaq	-40(%rbp), %rax
	movl	$1, %esi
	movq	%rax, %rdi
	call	_ZNK9__gnu_cxx17__normal_iteratorIPlSt6vectorIlSaIlEEEplEl
	movq	%rax, %rdx
	movq	-40(%rbp), %rcx
	movq	-56(%rbp), %rax
	movq	%rcx, %rsi
	movq	%rax, %rdi
	call	_ZSt13move_backwardIN9__gnu_cxx17__normal_iteratorIPlSt6vectorIlSaIlEEEES6_ET0_T_S8_S7_
	leaq	-32(%rbp), %rax
	movq	%rax, %rdi
	call	_ZSt4moveIRlEONSt16remove_referenceIT_E4typeEOS2_
	movq	%rax, %rbx
	leaq	-56(%rbp), %rax
	movq	%rax, %rdi
	call	_ZNK9__gnu_cxx17__normal_iteratorIPlSt6vectorIlSaIlEEEdeEv
	movq	(%rbx), %rdx
	movq	%rdx, (%rax)
	jmp	.L342
.L341:
	call	_ZN9__gnu_cxx5__ops15__val_comp_iterENS0_15_Iter_less_iterE
	movq	-40(%rbp), %rax
	movq	%rax, %rdi
	call	_ZSt25__unguarded_linear_insertIN9__gnu_cxx17__normal_iteratorIPlSt6vectorIlSaIlEEEENS0_5__ops14_Val_less_iterEEvT_T0_
.L342:
	leaq	-40(%rbp), %rax
	movq	%rax, %rdi
	call	_ZN9__gnu_cxx17__normal_iteratorIPlSt6vectorIlSaIlEEEppEv
	jmp	.L343
.L345:
	nop
.L337:
	movq	-24(%rbp), %rax
	xorq	%fs:40, %rax
	je	.L344
	call	__stack_chk_fail@PLT
.L344:
	addq	$72, %rsp
	popq	%rbx
	popq	%rbp
	.cfi_def_cfa 7, 8
	ret
	.cfi_endproc
.LFE3159:
	.size	_ZSt16__insertion_sortIN9__gnu_cxx17__normal_iteratorIPlSt6vectorIlSaIlEEEENS0_5__ops15_Iter_less_iterEEvT_S9_T0_, .-_ZSt16__insertion_sortIN9__gnu_cxx17__normal_iteratorIPlSt6vectorIlSaIlEEEENS0_5__ops15_Iter_less_iterEEvT_S9_T0_
	.section	.text._ZSt26__unguarded_insertion_sortIN9__gnu_cxx17__normal_iteratorIPlSt6vectorIlSaIlEEEENS0_5__ops15_Iter_less_iterEEvT_S9_T0_,"axG",@progbits,_ZSt26__unguarded_insertion_sortIN9__gnu_cxx17__normal_iteratorIPlSt6vectorIlSaIlEEEENS0_5__ops15_Iter_less_iterEEvT_S9_T0_,comdat
	.weak	_ZSt26__unguarded_insertion_sortIN9__gnu_cxx17__normal_iteratorIPlSt6vectorIlSaIlEEEENS0_5__ops15_Iter_less_iterEEvT_S9_T0_
	.type	_ZSt26__unguarded_insertion_sortIN9__gnu_cxx17__normal_iteratorIPlSt6vectorIlSaIlEEEENS0_5__ops15_Iter_less_iterEEvT_S9_T0_, @function
_ZSt26__unguarded_insertion_sortIN9__gnu_cxx17__normal_iteratorIPlSt6vectorIlSaIlEEEENS0_5__ops15_Iter_less_iterEEvT_S9_T0_:
.LFB3160:
	.cfi_startproc
	endbr64
	pushq	%rbp
	.cfi_def_cfa_offset 16
	.cfi_offset 6, -16
	movq	%rsp, %rbp
	.cfi_def_cfa_register 6
	subq	$48, %rsp
	movq	%rdi, -24(%rbp)
	movq	%rsi, -32(%rbp)
	movq	%fs:40, %rax
	movq	%rax, -8(%rbp)
	xorl	%eax, %eax
	movq	-24(%rbp), %rax
	movq	%rax, -16(%rbp)
.L348:
	leaq	-32(%rbp), %rdx
	leaq	-16(%rbp), %rax
	movq	%rdx, %rsi
	movq	%rax, %rdi
	call	_ZN9__gnu_cxxneIPlSt6vectorIlSaIlEEEEbRKNS_17__normal_iteratorIT_T0_EESA_
	testb	%al, %al
	je	.L350
	call	_ZN9__gnu_cxx5__ops15__val_comp_iterENS0_15_Iter_less_iterE
	movq	-16(%rbp), %rax
	movq	%rax, %rdi
	call	_ZSt25__unguarded_linear_insertIN9__gnu_cxx17__normal_iteratorIPlSt6vectorIlSaIlEEEENS0_5__ops14_Val_less_iterEEvT_T0_
	leaq	-16(%rbp), %rax
	movq	%rax, %rdi
	call	_ZN9__gnu_cxx17__normal_iteratorIPlSt6vectorIlSaIlEEEppEv
	jmp	.L348
.L350:
	nop
	movq	-8(%rbp), %rax
	xorq	%fs:40, %rax
	je	.L349
	call	__stack_chk_fail@PLT
.L349:
	leave
	.cfi_def_cfa 7, 8
	ret
	.cfi_endproc
.LFE3160:
	.size	_ZSt26__unguarded_insertion_sortIN9__gnu_cxx17__normal_iteratorIPlSt6vectorIlSaIlEEEENS0_5__ops15_Iter_less_iterEEvT_S9_T0_, .-_ZSt26__unguarded_insertion_sortIN9__gnu_cxx17__normal_iteratorIPlSt6vectorIlSaIlEEEENS0_5__ops15_Iter_less_iterEEvT_S9_T0_
	.section	.text._ZNSt16allocator_traitsISaISt10_List_nodeIcEEE8allocateERS2_m,"axG",@progbits,_ZNSt16allocator_traitsISaISt10_List_nodeIcEEE8allocateERS2_m,comdat
	.weak	_ZNSt16allocator_traitsISaISt10_List_nodeIcEEE8allocateERS2_m
	.type	_ZNSt16allocator_traitsISaISt10_List_nodeIcEEE8allocateERS2_m, @function
_ZNSt16allocator_traitsISaISt10_List_nodeIcEEE8allocateERS2_m:
.LFB3190:
	.cfi_startproc
	endbr64
	pushq	%rbp
	.cfi_def_cfa_offset 16
	.cfi_offset 6, -16
	movq	%rsp, %rbp
	.cfi_def_cfa_register 6
	subq	$16, %rsp
	movq	%rdi, -8(%rbp)
	movq	%rsi, -16(%rbp)
	movq	-16(%rbp), %rcx
	movq	-8(%rbp), %rax
	movl	$0, %edx
	movq	%rcx, %rsi
	movq	%rax, %rdi
	call	_ZN9__gnu_cxx13new_allocatorISt10_List_nodeIcEE8allocateEmPKv
	leave
	.cfi_def_cfa 7, 8
	ret
	.cfi_endproc
.LFE3190:
	.size	_ZNSt16allocator_traitsISaISt10_List_nodeIcEEE8allocateERS2_m, .-_ZNSt16allocator_traitsISaISt10_List_nodeIcEEE8allocateERS2_m
	.section	.text._ZSt11__addressofISaISt10_List_nodeIcEEEPT_RS3_,"axG",@progbits,_ZSt11__addressofISaISt10_List_nodeIcEEEPT_RS3_,comdat
	.weak	_ZSt11__addressofISaISt10_List_nodeIcEEEPT_RS3_
	.type	_ZSt11__addressofISaISt10_List_nodeIcEEEPT_RS3_, @function
_ZSt11__addressofISaISt10_List_nodeIcEEEPT_RS3_:
.LFB3191:
	.cfi_startproc
	endbr64
	pushq	%rbp
	.cfi_def_cfa_offset 16
	.cfi_offset 6, -16
	movq	%rsp, %rbp
	.cfi_def_cfa_register 6
	movq	%rdi, -8(%rbp)
	movq	-8(%rbp), %rax
	popq	%rbp
	.cfi_def_cfa 7, 8
	ret
	.cfi_endproc
.LFE3191:
	.size	_ZSt11__addressofISaISt10_List_nodeIcEEEPT_RS3_, .-_ZSt11__addressofISaISt10_List_nodeIcEEEPT_RS3_
	.section	.text._ZN9__gnu_cxx13new_allocatorISt10_List_nodeIcEE9constructIcJRKcEEEvPT_DpOT0_,"axG",@progbits,_ZN9__gnu_cxx13new_allocatorISt10_List_nodeIcEE9constructIcJRKcEEEvPT_DpOT0_,comdat
	.align 2
	.weak	_ZN9__gnu_cxx13new_allocatorISt10_List_nodeIcEE9constructIcJRKcEEEvPT_DpOT0_
	.type	_ZN9__gnu_cxx13new_allocatorISt10_List_nodeIcEE9constructIcJRKcEEEvPT_DpOT0_, @function
_ZN9__gnu_cxx13new_allocatorISt10_List_nodeIcEE9constructIcJRKcEEEvPT_DpOT0_:
.LFB3192:
	.cfi_startproc
	endbr64
	pushq	%rbp
	.cfi_def_cfa_offset 16
	.cfi_offset 6, -16
	movq	%rsp, %rbp
	.cfi_def_cfa_register 6
	pushq	%rbx
	subq	$40, %rsp
	.cfi_offset 3, -24
	movq	%rdi, -24(%rbp)
	movq	%rsi, -32(%rbp)
	movq	%rdx, -40(%rbp)
	movq	-40(%rbp), %rax
	movq	%rax, %rdi
	call	_ZSt7forwardIRKcEOT_RNSt16remove_referenceIS2_E4typeE
	movzbl	(%rax), %ebx
	movq	-32(%rbp), %rax
	movq	%rax, %rsi
	movl	$1, %edi
	call	_ZnwmPv
	movb	%bl, (%rax)
	nop
	addq	$40, %rsp
	popq	%rbx
	popq	%rbp
	.cfi_def_cfa 7, 8
	ret
	.cfi_endproc
.LFE3192:
	.size	_ZN9__gnu_cxx13new_allocatorISt10_List_nodeIcEE9constructIcJRKcEEEvPT_DpOT0_, .-_ZN9__gnu_cxx13new_allocatorISt10_List_nodeIcEE9constructIcJRKcEEEvPT_DpOT0_
	.section	.text._ZN9__gnu_cxx13new_allocatorISt10_List_nodeIcEE10deallocateEPS2_m,"axG",@progbits,_ZN9__gnu_cxx13new_allocatorISt10_List_nodeIcEE10deallocateEPS2_m,comdat
	.align 2
	.weak	_ZN9__gnu_cxx13new_allocatorISt10_List_nodeIcEE10deallocateEPS2_m
	.type	_ZN9__gnu_cxx13new_allocatorISt10_List_nodeIcEE10deallocateEPS2_m, @function
_ZN9__gnu_cxx13new_allocatorISt10_List_nodeIcEE10deallocateEPS2_m:
.LFB3193:
	.cfi_startproc
	endbr64
	pushq	%rbp
	.cfi_def_cfa_offset 16
	.cfi_offset 6, -16
	movq	%rsp, %rbp
	.cfi_def_cfa_register 6
	subq	$32, %rsp
	movq	%rdi, -8(%rbp)
	movq	%rsi, -16(%rbp)
	movq	%rdx, -24(%rbp)
	movq	-16(%rbp), %rax
	movq	%rax, %rdi
	call	_ZdlPv@PLT
	nop
	leave
	.cfi_def_cfa 7, 8
	ret
	.cfi_endproc
.LFE3193:
	.size	_ZN9__gnu_cxx13new_allocatorISt10_List_nodeIcEE10deallocateEPS2_m, .-_ZN9__gnu_cxx13new_allocatorISt10_List_nodeIcEE10deallocateEPS2_m
	.section	.text._ZN9__gnu_cxx13new_allocatorISt10_List_nodeIlEE10deallocateEPS2_m,"axG",@progbits,_ZN9__gnu_cxx13new_allocatorISt10_List_nodeIlEE10deallocateEPS2_m,comdat
	.align 2
	.weak	_ZN9__gnu_cxx13new_allocatorISt10_List_nodeIlEE10deallocateEPS2_m
	.type	_ZN9__gnu_cxx13new_allocatorISt10_List_nodeIlEE10deallocateEPS2_m, @function
_ZN9__gnu_cxx13new_allocatorISt10_List_nodeIlEE10deallocateEPS2_m:
.LFB3194:
	.cfi_startproc
	endbr64
	pushq	%rbp
	.cfi_def_cfa_offset 16
	.cfi_offset 6, -16
	movq	%rsp, %rbp
	.cfi_def_cfa_register 6
	subq	$32, %rsp
	movq	%rdi, -8(%rbp)
	movq	%rsi, -16(%rbp)
	movq	%rdx, -24(%rbp)
	movq	-16(%rbp), %rax
	movq	%rax, %rdi
	call	_ZdlPv@PLT
	nop
	leave
	.cfi_def_cfa 7, 8
	ret
	.cfi_endproc
.LFE3194:
	.size	_ZN9__gnu_cxx13new_allocatorISt10_List_nodeIlEE10deallocateEPS2_m, .-_ZN9__gnu_cxx13new_allocatorISt10_List_nodeIlEE10deallocateEPS2_m
	.section	.text._ZNSt16allocator_traitsISaISt10_List_nodeIlEEE8allocateERS2_m,"axG",@progbits,_ZNSt16allocator_traitsISaISt10_List_nodeIlEEE8allocateERS2_m,comdat
	.weak	_ZNSt16allocator_traitsISaISt10_List_nodeIlEEE8allocateERS2_m
	.type	_ZNSt16allocator_traitsISaISt10_List_nodeIlEEE8allocateERS2_m, @function
_ZNSt16allocator_traitsISaISt10_List_nodeIlEEE8allocateERS2_m:
.LFB3195:
	.cfi_startproc
	endbr64
	pushq	%rbp
	.cfi_def_cfa_offset 16
	.cfi_offset 6, -16
	movq	%rsp, %rbp
	.cfi_def_cfa_register 6
	subq	$16, %rsp
	movq	%rdi, -8(%rbp)
	movq	%rsi, -16(%rbp)
	movq	-16(%rbp), %rcx
	movq	-8(%rbp), %rax
	movl	$0, %edx
	movq	%rcx, %rsi
	movq	%rax, %rdi
	call	_ZN9__gnu_cxx13new_allocatorISt10_List_nodeIlEE8allocateEmPKv
	leave
	.cfi_def_cfa 7, 8
	ret
	.cfi_endproc
.LFE3195:
	.size	_ZNSt16allocator_traitsISaISt10_List_nodeIlEEE8allocateERS2_m, .-_ZNSt16allocator_traitsISaISt10_List_nodeIlEEE8allocateERS2_m
	.section	.text._ZSt11__addressofISaISt10_List_nodeIlEEEPT_RS3_,"axG",@progbits,_ZSt11__addressofISaISt10_List_nodeIlEEEPT_RS3_,comdat
	.weak	_ZSt11__addressofISaISt10_List_nodeIlEEEPT_RS3_
	.type	_ZSt11__addressofISaISt10_List_nodeIlEEEPT_RS3_, @function
_ZSt11__addressofISaISt10_List_nodeIlEEEPT_RS3_:
.LFB3196:
	.cfi_startproc
	endbr64
	pushq	%rbp
	.cfi_def_cfa_offset 16
	.cfi_offset 6, -16
	movq	%rsp, %rbp
	.cfi_def_cfa_register 6
	movq	%rdi, -8(%rbp)
	movq	-8(%rbp), %rax
	popq	%rbp
	.cfi_def_cfa 7, 8
	ret
	.cfi_endproc
.LFE3196:
	.size	_ZSt11__addressofISaISt10_List_nodeIlEEEPT_RS3_, .-_ZSt11__addressofISaISt10_List_nodeIlEEEPT_RS3_
	.section	.text._ZN9__gnu_cxx13new_allocatorISt10_List_nodeIlEE9constructIlJRKlEEEvPT_DpOT0_,"axG",@progbits,_ZN9__gnu_cxx13new_allocatorISt10_List_nodeIlEE9constructIlJRKlEEEvPT_DpOT0_,comdat
	.align 2
	.weak	_ZN9__gnu_cxx13new_allocatorISt10_List_nodeIlEE9constructIlJRKlEEEvPT_DpOT0_
	.type	_ZN9__gnu_cxx13new_allocatorISt10_List_nodeIlEE9constructIlJRKlEEEvPT_DpOT0_, @function
_ZN9__gnu_cxx13new_allocatorISt10_List_nodeIlEE9constructIlJRKlEEEvPT_DpOT0_:
.LFB3197:
	.cfi_startproc
	endbr64
	pushq	%rbp
	.cfi_def_cfa_offset 16
	.cfi_offset 6, -16
	movq	%rsp, %rbp
	.cfi_def_cfa_register 6
	pushq	%rbx
	subq	$40, %rsp
	.cfi_offset 3, -24
	movq	%rdi, -24(%rbp)
	movq	%rsi, -32(%rbp)
	movq	%rdx, -40(%rbp)
	movq	-40(%rbp), %rax
	movq	%rax, %rdi
	call	_ZSt7forwardIRKlEOT_RNSt16remove_referenceIS2_E4typeE
	movq	(%rax), %rbx
	movq	-32(%rbp), %rax
	movq	%rax, %rsi
	movl	$8, %edi
	call	_ZnwmPv
	movq	%rbx, (%rax)
	nop
	addq	$40, %rsp
	popq	%rbx
	popq	%rbp
	.cfi_def_cfa 7, 8
	ret
	.cfi_endproc
.LFE3197:
	.size	_ZN9__gnu_cxx13new_allocatorISt10_List_nodeIlEE9constructIlJRKlEEEvPT_DpOT0_, .-_ZN9__gnu_cxx13new_allocatorISt10_List_nodeIlEE9constructIlJRKlEEEvPT_DpOT0_
	.section	.text._ZNSt6vectorIlSaIlEE11_S_max_sizeERKS0_,"axG",@progbits,_ZNSt6vectorIlSaIlEE11_S_max_sizeERKS0_,comdat
	.weak	_ZNSt6vectorIlSaIlEE11_S_max_sizeERKS0_
	.type	_ZNSt6vectorIlSaIlEE11_S_max_sizeERKS0_, @function
_ZNSt6vectorIlSaIlEE11_S_max_sizeERKS0_:
.LFB3198:
	.cfi_startproc
	endbr64
	pushq	%rbp
	.cfi_def_cfa_offset 16
	.cfi_offset 6, -16
	movq	%rsp, %rbp
	.cfi_def_cfa_register 6
	subq	$48, %rsp
	movq	%rdi, -40(%rbp)
	movq	%fs:40, %rax
	movq	%rax, -8(%rbp)
	xorl	%eax, %eax
	movabsq	$1152921504606846975, %rax
	movq	%rax, -24(%rbp)
	movq	-40(%rbp), %rax
	movq	%rax, %rdi
	call	_ZNSt16allocator_traitsISaIlEE8max_sizeERKS0_
	movq	%rax, -16(%rbp)
	leaq	-16(%rbp), %rdx
	leaq	-24(%rbp), %rax
	movq	%rdx, %rsi
	movq	%rax, %rdi
	call	_ZSt3minImERKT_S2_S2_
	movq	(%rax), %rax
	movq	-8(%rbp), %rcx
	xorq	%fs:40, %rcx
	je	.L365
	call	__stack_chk_fail@PLT
.L365:
	leave
	.cfi_def_cfa 7, 8
	ret
	.cfi_endproc
.LFE3198:
	.size	_ZNSt6vectorIlSaIlEE11_S_max_sizeERKS0_, .-_ZNSt6vectorIlSaIlEE11_S_max_sizeERKS0_
	.section	.text._ZNKSt12_Vector_baseIlSaIlEE19_M_get_Tp_allocatorEv,"axG",@progbits,_ZNKSt12_Vector_baseIlSaIlEE19_M_get_Tp_allocatorEv,comdat
	.align 2
	.weak	_ZNKSt12_Vector_baseIlSaIlEE19_M_get_Tp_allocatorEv
	.type	_ZNKSt12_Vector_baseIlSaIlEE19_M_get_Tp_allocatorEv, @function
_ZNKSt12_Vector_baseIlSaIlEE19_M_get_Tp_allocatorEv:
.LFB3199:
	.cfi_startproc
	endbr64
	pushq	%rbp
	.cfi_def_cfa_offset 16
	.cfi_offset 6, -16
	movq	%rsp, %rbp
	.cfi_def_cfa_register 6
	movq	%rdi, -8(%rbp)
	movq	-8(%rbp), %rax
	popq	%rbp
	.cfi_def_cfa 7, 8
	ret
	.cfi_endproc
.LFE3199:
	.size	_ZNKSt12_Vector_baseIlSaIlEE19_M_get_Tp_allocatorEv, .-_ZNKSt12_Vector_baseIlSaIlEE19_M_get_Tp_allocatorEv
	.section	.text._ZN9__gnu_cxx13new_allocatorIlE8allocateEmPKv,"axG",@progbits,_ZN9__gnu_cxx13new_allocatorIlE8allocateEmPKv,comdat
	.align 2
	.weak	_ZN9__gnu_cxx13new_allocatorIlE8allocateEmPKv
	.type	_ZN9__gnu_cxx13new_allocatorIlE8allocateEmPKv, @function
_ZN9__gnu_cxx13new_allocatorIlE8allocateEmPKv:
.LFB3200:
	.cfi_startproc
	endbr64
	pushq	%rbp
	.cfi_def_cfa_offset 16
	.cfi_offset 6, -16
	movq	%rsp, %rbp
	.cfi_def_cfa_register 6
	subq	$32, %rsp
	movq	%rdi, -8(%rbp)
	movq	%rsi, -16(%rbp)
	movq	%rdx, -24(%rbp)
	movq	-8(%rbp), %rax
	movq	%rax, %rdi
	call	_ZNK9__gnu_cxx13new_allocatorIlE8max_sizeEv
	cmpq	%rax, -16(%rbp)
	seta	%al
	testb	%al, %al
	je	.L369
	call	_ZSt17__throw_bad_allocv@PLT
.L369:
	movq	-16(%rbp), %rax
	salq	$3, %rax
	movq	%rax, %rdi
	call	_Znwm@PLT
	leave
	.cfi_def_cfa 7, 8
	ret
	.cfi_endproc
.LFE3200:
	.size	_ZN9__gnu_cxx13new_allocatorIlE8allocateEmPKv, .-_ZN9__gnu_cxx13new_allocatorIlE8allocateEmPKv
	.section	.text._ZSt12__relocate_aIPlS0_SaIlEET0_T_S3_S2_RT1_,"axG",@progbits,_ZSt12__relocate_aIPlS0_SaIlEET0_T_S3_S2_RT1_,comdat
	.weak	_ZSt12__relocate_aIPlS0_SaIlEET0_T_S3_S2_RT1_
	.type	_ZSt12__relocate_aIPlS0_SaIlEET0_T_S3_S2_RT1_, @function
_ZSt12__relocate_aIPlS0_SaIlEET0_T_S3_S2_RT1_:
.LFB3201:
	.cfi_startproc
	endbr64
	pushq	%rbp
	.cfi_def_cfa_offset 16
	.cfi_offset 6, -16
	movq	%rsp, %rbp
	.cfi_def_cfa_register 6
	pushq	%r12
	pushq	%rbx
	subq	$32, %rsp
	.cfi_offset 12, -24
	.cfi_offset 3, -32
	movq	%rdi, -24(%rbp)
	movq	%rsi, -32(%rbp)
	movq	%rdx, -40(%rbp)
	movq	%rcx, -48(%rbp)
	movq	-40(%rbp), %rax
	movq	%rax, %rdi
	call	_ZSt12__niter_baseIPlET_S1_
	movq	%rax, %r12
	movq	-32(%rbp), %rax
	movq	%rax, %rdi
	call	_ZSt12__niter_baseIPlET_S1_
	movq	%rax, %rbx
	movq	-24(%rbp), %rax
	movq	%rax, %rdi
	call	_ZSt12__niter_baseIPlET_S1_
	movq	%rax, %rdi
	movq	-48(%rbp), %rax
	movq	%rax, %rcx
	movq	%r12, %rdx
	movq	%rbx, %rsi
	call	_ZSt14__relocate_a_1IllENSt9enable_ifIXsrSt24__is_bitwise_relocatableIT_vE5valueEPS2_E4typeES4_S4_S4_RSaIT0_E
	addq	$32, %rsp
	popq	%rbx
	popq	%r12
	popq	%rbp
	.cfi_def_cfa 7, 8
	ret
	.cfi_endproc
.LFE3201:
	.size	_ZSt12__relocate_aIPlS0_SaIlEET0_T_S3_S2_RT1_, .-_ZSt12__relocate_aIPlS0_SaIlEET0_T_S3_S2_RT1_
	.section	.text._ZNSt13move_iteratorIPlEC2ES0_,"axG",@progbits,_ZNSt13move_iteratorIPlEC5ES0_,comdat
	.align 2
	.weak	_ZNSt13move_iteratorIPlEC2ES0_
	.type	_ZNSt13move_iteratorIPlEC2ES0_, @function
_ZNSt13move_iteratorIPlEC2ES0_:
.LFB3203:
	.cfi_startproc
	endbr64
	pushq	%rbp
	.cfi_def_cfa_offset 16
	.cfi_offset 6, -16
	movq	%rsp, %rbp
	.cfi_def_cfa_register 6
	movq	%rdi, -8(%rbp)
	movq	%rsi, -16(%rbp)
	movq	-8(%rbp), %rax
	movq	-16(%rbp), %rdx
	movq	%rdx, (%rax)
	nop
	popq	%rbp
	.cfi_def_cfa 7, 8
	ret
	.cfi_endproc
.LFE3203:
	.size	_ZNSt13move_iteratorIPlEC2ES0_, .-_ZNSt13move_iteratorIPlEC2ES0_
	.weak	_ZNSt13move_iteratorIPlEC1ES0_
	.set	_ZNSt13move_iteratorIPlEC1ES0_,_ZNSt13move_iteratorIPlEC2ES0_
	.section	.text._ZSt18uninitialized_copyISt13move_iteratorIPlES1_ET0_T_S4_S3_,"axG",@progbits,_ZSt18uninitialized_copyISt13move_iteratorIPlES1_ET0_T_S4_S3_,comdat
	.weak	_ZSt18uninitialized_copyISt13move_iteratorIPlES1_ET0_T_S4_S3_
	.type	_ZSt18uninitialized_copyISt13move_iteratorIPlES1_ET0_T_S4_S3_, @function
_ZSt18uninitialized_copyISt13move_iteratorIPlES1_ET0_T_S4_S3_:
.LFB3205:
	.cfi_startproc
	endbr64
	pushq	%rbp
	.cfi_def_cfa_offset 16
	.cfi_offset 6, -16
	movq	%rsp, %rbp
	.cfi_def_cfa_register 6
	subq	$48, %rsp
	movq	%rdi, -24(%rbp)
	movq	%rsi, -32(%rbp)
	movq	%rdx, -40(%rbp)
	movb	$1, -1(%rbp)
	movq	-40(%rbp), %rdx
	movq	-32(%rbp), %rcx
	movq	-24(%rbp), %rax
	movq	%rcx, %rsi
	movq	%rax, %rdi
	call	_ZNSt20__uninitialized_copyILb1EE13__uninit_copyISt13move_iteratorIPlES3_EET0_T_S6_S5_
	leave
	.cfi_def_cfa 7, 8
	ret
	.cfi_endproc
.LFE3205:
	.size	_ZSt18uninitialized_copyISt13move_iteratorIPlES1_ET0_T_S4_S3_, .-_ZSt18uninitialized_copyISt13move_iteratorIPlES1_ET0_T_S4_S3_
	.section	.text._ZSt13__heap_selectIN9__gnu_cxx17__normal_iteratorIPlSt6vectorIlSaIlEEEENS0_5__ops15_Iter_less_iterEEvT_S9_S9_T0_,"axG",@progbits,_ZSt13__heap_selectIN9__gnu_cxx17__normal_iteratorIPlSt6vectorIlSaIlEEEENS0_5__ops15_Iter_less_iterEEvT_S9_S9_T0_,comdat
	.weak	_ZSt13__heap_selectIN9__gnu_cxx17__normal_iteratorIPlSt6vectorIlSaIlEEEENS0_5__ops15_Iter_less_iterEEvT_S9_S9_T0_
	.type	_ZSt13__heap_selectIN9__gnu_cxx17__normal_iteratorIPlSt6vectorIlSaIlEEEENS0_5__ops15_Iter_less_iterEEvT_S9_S9_T0_, @function
_ZSt13__heap_selectIN9__gnu_cxx17__normal_iteratorIPlSt6vectorIlSaIlEEEENS0_5__ops15_Iter_less_iterEEvT_S9_S9_T0_:
.LFB3206:
	.cfi_startproc
	endbr64
	pushq	%rbp
	.cfi_def_cfa_offset 16
	.cfi_offset 6, -16
	movq	%rsp, %rbp
	.cfi_def_cfa_register 6
	subq	$48, %rsp
	movq	%rdi, -24(%rbp)
	movq	%rsi, -32(%rbp)
	movq	%rdx, -40(%rbp)
	movq	%fs:40, %rax
	movq	%rax, -8(%rbp)
	xorl	%eax, %eax
	leaq	-41(%rbp), %rdx
	movq	-32(%rbp), %rcx
	movq	-24(%rbp), %rax
	movq	%rcx, %rsi
	movq	%rax, %rdi
	call	_ZSt11__make_heapIN9__gnu_cxx17__normal_iteratorIPlSt6vectorIlSaIlEEEENS0_5__ops15_Iter_less_iterEEvT_S9_RT0_
	movq	-32(%rbp), %rax
	movq	%rax, -16(%rbp)
.L379:
	leaq	-40(%rbp), %rdx
	leaq	-16(%rbp), %rax
	movq	%rdx, %rsi
	movq	%rax, %rdi
	call	_ZN9__gnu_cxxltIPlSt6vectorIlSaIlEEEEbRKNS_17__normal_iteratorIT_T0_EESA_
	testb	%al, %al
	je	.L381
	movq	-24(%rbp), %rdx
	movq	-16(%rbp), %rcx
	leaq	-41(%rbp), %rax
	movq	%rcx, %rsi
	movq	%rax, %rdi
	call	_ZNK9__gnu_cxx5__ops15_Iter_less_iterclINS_17__normal_iteratorIPlSt6vectorIlSaIlEEEES8_EEbT_T0_
	testb	%al, %al
	je	.L378
	leaq	-41(%rbp), %rcx
	movq	-16(%rbp), %rdx
	movq	-32(%rbp), %rsi
	movq	-24(%rbp), %rax
	movq	%rax, %rdi
	call	_ZSt10__pop_heapIN9__gnu_cxx17__normal_iteratorIPlSt6vectorIlSaIlEEEENS0_5__ops15_Iter_less_iterEEvT_S9_S9_RT0_
.L378:
	leaq	-16(%rbp), %rax
	movq	%rax, %rdi
	call	_ZN9__gnu_cxx17__normal_iteratorIPlSt6vectorIlSaIlEEEppEv
	jmp	.L379
.L381:
	nop
	movq	-8(%rbp), %rax
	xorq	%fs:40, %rax
	je	.L380
	call	__stack_chk_fail@PLT
.L380:
	leave
	.cfi_def_cfa 7, 8
	ret
	.cfi_endproc
.LFE3206:
	.size	_ZSt13__heap_selectIN9__gnu_cxx17__normal_iteratorIPlSt6vectorIlSaIlEEEENS0_5__ops15_Iter_less_iterEEvT_S9_S9_T0_, .-_ZSt13__heap_selectIN9__gnu_cxx17__normal_iteratorIPlSt6vectorIlSaIlEEEENS0_5__ops15_Iter_less_iterEEvT_S9_S9_T0_
	.section	.text._ZSt11__sort_heapIN9__gnu_cxx17__normal_iteratorIPlSt6vectorIlSaIlEEEENS0_5__ops15_Iter_less_iterEEvT_S9_RT0_,"axG",@progbits,_ZSt11__sort_heapIN9__gnu_cxx17__normal_iteratorIPlSt6vectorIlSaIlEEEENS0_5__ops15_Iter_less_iterEEvT_S9_RT0_,comdat
	.weak	_ZSt11__sort_heapIN9__gnu_cxx17__normal_iteratorIPlSt6vectorIlSaIlEEEENS0_5__ops15_Iter_less_iterEEvT_S9_RT0_
	.type	_ZSt11__sort_heapIN9__gnu_cxx17__normal_iteratorIPlSt6vectorIlSaIlEEEENS0_5__ops15_Iter_less_iterEEvT_S9_RT0_, @function
_ZSt11__sort_heapIN9__gnu_cxx17__normal_iteratorIPlSt6vectorIlSaIlEEEENS0_5__ops15_Iter_less_iterEEvT_S9_RT0_:
.LFB3207:
	.cfi_startproc
	endbr64
	pushq	%rbp
	.cfi_def_cfa_offset 16
	.cfi_offset 6, -16
	movq	%rsp, %rbp
	.cfi_def_cfa_register 6
	subq	$32, %rsp
	movq	%rdi, -8(%rbp)
	movq	%rsi, -16(%rbp)
	movq	%rdx, -24(%rbp)
.L384:
	leaq	-8(%rbp), %rdx
	leaq	-16(%rbp), %rax
	movq	%rdx, %rsi
	movq	%rax, %rdi
	call	_ZN9__gnu_cxxmiIPlSt6vectorIlSaIlEEEENS_17__normal_iteratorIT_T0_E15difference_typeERKS8_SB_
	cmpq	$1, %rax
	setg	%al
	testb	%al, %al
	je	.L385
	leaq	-16(%rbp), %rax
	movq	%rax, %rdi
	call	_ZN9__gnu_cxx17__normal_iteratorIPlSt6vectorIlSaIlEEEmmEv
	movq	-24(%rbp), %rcx
	movq	-16(%rbp), %rdx
	movq	-16(%rbp), %rsi
	movq	-8(%rbp), %rax
	movq	%rax, %rdi
	call	_ZSt10__pop_heapIN9__gnu_cxx17__normal_iteratorIPlSt6vectorIlSaIlEEEENS0_5__ops15_Iter_less_iterEEvT_S9_S9_RT0_
	jmp	.L384
.L385:
	nop
	leave
	.cfi_def_cfa 7, 8
	ret
	.cfi_endproc
.LFE3207:
	.size	_ZSt11__sort_heapIN9__gnu_cxx17__normal_iteratorIPlSt6vectorIlSaIlEEEENS0_5__ops15_Iter_less_iterEEvT_S9_RT0_, .-_ZSt11__sort_heapIN9__gnu_cxx17__normal_iteratorIPlSt6vectorIlSaIlEEEENS0_5__ops15_Iter_less_iterEEvT_S9_RT0_
	.section	.text._ZNK9__gnu_cxx17__normal_iteratorIPlSt6vectorIlSaIlEEEmiEl,"axG",@progbits,_ZNK9__gnu_cxx17__normal_iteratorIPlSt6vectorIlSaIlEEEmiEl,comdat
	.align 2
	.weak	_ZNK9__gnu_cxx17__normal_iteratorIPlSt6vectorIlSaIlEEEmiEl
	.type	_ZNK9__gnu_cxx17__normal_iteratorIPlSt6vectorIlSaIlEEEmiEl, @function
_ZNK9__gnu_cxx17__normal_iteratorIPlSt6vectorIlSaIlEEEmiEl:
.LFB3208:
	.cfi_startproc
	endbr64
	pushq	%rbp
	.cfi_def_cfa_offset 16
	.cfi_offset 6, -16
	movq	%rsp, %rbp
	.cfi_def_cfa_register 6
	subq	$48, %rsp
	movq	%rdi, -40(%rbp)
	movq	%rsi, -48(%rbp)
	movq	%fs:40, %rax
	movq	%rax, -8(%rbp)
	xorl	%eax, %eax
	movq	-40(%rbp), %rax
	movq	(%rax), %rax
	movq	-48(%rbp), %rdx
	salq	$3, %rdx
	negq	%rdx
	addq	%rdx, %rax
	movq	%rax, -24(%rbp)
	leaq	-24(%rbp), %rdx
	leaq	-16(%rbp), %rax
	movq	%rdx, %rsi
	movq	%rax, %rdi
	call	_ZN9__gnu_cxx17__normal_iteratorIPlSt6vectorIlSaIlEEEC1ERKS1_
	movq	-16(%rbp), %rax
	movq	-8(%rbp), %rcx
	xorq	%fs:40, %rcx
	je	.L388
	call	__stack_chk_fail@PLT
.L388:
	leave
	.cfi_def_cfa 7, 8
	ret
	.cfi_endproc
.LFE3208:
	.size	_ZNK9__gnu_cxx17__normal_iteratorIPlSt6vectorIlSaIlEEEmiEl, .-_ZNK9__gnu_cxx17__normal_iteratorIPlSt6vectorIlSaIlEEEmiEl
	.section	.text._ZNK9__gnu_cxx5__ops15_Iter_less_iterclINS_17__normal_iteratorIPlSt6vectorIlSaIlEEEES8_EEbT_T0_,"axG",@progbits,_ZNK9__gnu_cxx5__ops15_Iter_less_iterclINS_17__normal_iteratorIPlSt6vectorIlSaIlEEEES8_EEbT_T0_,comdat
	.align 2
	.weak	_ZNK9__gnu_cxx5__ops15_Iter_less_iterclINS_17__normal_iteratorIPlSt6vectorIlSaIlEEEES8_EEbT_T0_
	.type	_ZNK9__gnu_cxx5__ops15_Iter_less_iterclINS_17__normal_iteratorIPlSt6vectorIlSaIlEEEES8_EEbT_T0_, @function
_ZNK9__gnu_cxx5__ops15_Iter_less_iterclINS_17__normal_iteratorIPlSt6vectorIlSaIlEEEES8_EEbT_T0_:
.LFB3210:
	.cfi_startproc
	endbr64
	pushq	%rbp
	.cfi_def_cfa_offset 16
	.cfi_offset 6, -16
	movq	%rsp, %rbp
	.cfi_def_cfa_register 6
	pushq	%rbx
	subq	$40, %rsp
	.cfi_offset 3, -24
	movq	%rdi, -24(%rbp)
	movq	%rsi, -32(%rbp)
	movq	%rdx, -40(%rbp)
	leaq	-32(%rbp), %rax
	movq	%rax, %rdi
	call	_ZNK9__gnu_cxx17__normal_iteratorIPlSt6vectorIlSaIlEEEdeEv
	movq	(%rax), %rbx
	leaq	-40(%rbp), %rax
	movq	%rax, %rdi
	call	_ZNK9__gnu_cxx17__normal_iteratorIPlSt6vectorIlSaIlEEEdeEv
	movq	(%rax), %rax
	cmpq	%rax, %rbx
	setl	%al
	addq	$40, %rsp
	popq	%rbx
	popq	%rbp
	.cfi_def_cfa 7, 8
	ret
	.cfi_endproc
.LFE3210:
	.size	_ZNK9__gnu_cxx5__ops15_Iter_less_iterclINS_17__normal_iteratorIPlSt6vectorIlSaIlEEEES8_EEbT_T0_, .-_ZNK9__gnu_cxx5__ops15_Iter_less_iterclINS_17__normal_iteratorIPlSt6vectorIlSaIlEEEES8_EEbT_T0_
	.section	.text._ZSt22__move_median_to_firstIN9__gnu_cxx17__normal_iteratorIPlSt6vectorIlSaIlEEEENS0_5__ops15_Iter_less_iterEEvT_S9_S9_S9_T0_,"axG",@progbits,_ZSt22__move_median_to_firstIN9__gnu_cxx17__normal_iteratorIPlSt6vectorIlSaIlEEEENS0_5__ops15_Iter_less_iterEEvT_S9_S9_S9_T0_,comdat
	.weak	_ZSt22__move_median_to_firstIN9__gnu_cxx17__normal_iteratorIPlSt6vectorIlSaIlEEEENS0_5__ops15_Iter_less_iterEEvT_S9_S9_S9_T0_
	.type	_ZSt22__move_median_to_firstIN9__gnu_cxx17__normal_iteratorIPlSt6vectorIlSaIlEEEENS0_5__ops15_Iter_less_iterEEvT_S9_S9_S9_T0_, @function
_ZSt22__move_median_to_firstIN9__gnu_cxx17__normal_iteratorIPlSt6vectorIlSaIlEEEENS0_5__ops15_Iter_less_iterEEvT_S9_S9_S9_T0_:
.LFB3209:
	.cfi_startproc
	endbr64
	pushq	%rbp
	.cfi_def_cfa_offset 16
	.cfi_offset 6, -16
	movq	%rsp, %rbp
	.cfi_def_cfa_register 6
	subq	$48, %rsp
	movq	%rdi, -8(%rbp)
	movq	%rsi, -16(%rbp)
	movq	%rdx, -24(%rbp)
	movq	%rcx, -32(%rbp)
	movq	-24(%rbp), %rdx
	movq	-16(%rbp), %rcx
	leaq	-33(%rbp), %rax
	movq	%rcx, %rsi
	movq	%rax, %rdi
	call	_ZNK9__gnu_cxx5__ops15_Iter_less_iterclINS_17__normal_iteratorIPlSt6vectorIlSaIlEEEES8_EEbT_T0_
	testb	%al, %al
	je	.L392
	movq	-32(%rbp), %rdx
	movq	-24(%rbp), %rcx
	leaq	-33(%rbp), %rax
	movq	%rcx, %rsi
	movq	%rax, %rdi
	call	_ZNK9__gnu_cxx5__ops15_Iter_less_iterclINS_17__normal_iteratorIPlSt6vectorIlSaIlEEEES8_EEbT_T0_
	testb	%al, %al
	je	.L393
	movq	-24(%rbp), %rdx
	movq	-8(%rbp), %rax
	movq	%rdx, %rsi
	movq	%rax, %rdi
	call	_ZSt9iter_swapIN9__gnu_cxx17__normal_iteratorIPlSt6vectorIlSaIlEEEES6_EvT_T0_
	jmp	.L398
.L393:
	movq	-32(%rbp), %rdx
	movq	-16(%rbp), %rcx
	leaq	-33(%rbp), %rax
	movq	%rcx, %rsi
	movq	%rax, %rdi
	call	_ZNK9__gnu_cxx5__ops15_Iter_less_iterclINS_17__normal_iteratorIPlSt6vectorIlSaIlEEEES8_EEbT_T0_
	testb	%al, %al
	je	.L395
	movq	-32(%rbp), %rdx
	movq	-8(%rbp), %rax
	movq	%rdx, %rsi
	movq	%rax, %rdi
	call	_ZSt9iter_swapIN9__gnu_cxx17__normal_iteratorIPlSt6vectorIlSaIlEEEES6_EvT_T0_
	jmp	.L398
.L395:
	movq	-16(%rbp), %rdx
	movq	-8(%rbp), %rax
	movq	%rdx, %rsi
	movq	%rax, %rdi
	call	_ZSt9iter_swapIN9__gnu_cxx17__normal_iteratorIPlSt6vectorIlSaIlEEEES6_EvT_T0_
	jmp	.L398
.L392:
	movq	-32(%rbp), %rdx
	movq	-16(%rbp), %rcx
	leaq	-33(%rbp), %rax
	movq	%rcx, %rsi
	movq	%rax, %rdi
	call	_ZNK9__gnu_cxx5__ops15_Iter_less_iterclINS_17__normal_iteratorIPlSt6vectorIlSaIlEEEES8_EEbT_T0_
	testb	%al, %al
	je	.L396
	movq	-16(%rbp), %rdx
	movq	-8(%rbp), %rax
	movq	%rdx, %rsi
	movq	%rax, %rdi
	call	_ZSt9iter_swapIN9__gnu_cxx17__normal_iteratorIPlSt6vectorIlSaIlEEEES6_EvT_T0_
	jmp	.L398
.L396:
	movq	-32(%rbp), %rdx
	movq	-24(%rbp), %rcx
	leaq	-33(%rbp), %rax
	movq	%rcx, %rsi
	movq	%rax, %rdi
	call	_ZNK9__gnu_cxx5__ops15_Iter_less_iterclINS_17__normal_iteratorIPlSt6vectorIlSaIlEEEES8_EEbT_T0_
	testb	%al, %al
	je	.L397
	movq	-32(%rbp), %rdx
	movq	-8(%rbp), %rax
	movq	%rdx, %rsi
	movq	%rax, %rdi
	call	_ZSt9iter_swapIN9__gnu_cxx17__normal_iteratorIPlSt6vectorIlSaIlEEEES6_EvT_T0_
	jmp	.L398
.L397:
	movq	-24(%rbp), %rdx
	movq	-8(%rbp), %rax
	movq	%rdx, %rsi
	movq	%rax, %rdi
	call	_ZSt9iter_swapIN9__gnu_cxx17__normal_iteratorIPlSt6vectorIlSaIlEEEES6_EvT_T0_
.L398:
	nop
	leave
	.cfi_def_cfa 7, 8
	ret
	.cfi_endproc
.LFE3209:
	.size	_ZSt22__move_median_to_firstIN9__gnu_cxx17__normal_iteratorIPlSt6vectorIlSaIlEEEENS0_5__ops15_Iter_less_iterEEvT_S9_S9_S9_T0_, .-_ZSt22__move_median_to_firstIN9__gnu_cxx17__normal_iteratorIPlSt6vectorIlSaIlEEEENS0_5__ops15_Iter_less_iterEEvT_S9_S9_S9_T0_
	.section	.text._ZSt21__unguarded_partitionIN9__gnu_cxx17__normal_iteratorIPlSt6vectorIlSaIlEEEENS0_5__ops15_Iter_less_iterEET_S9_S9_S9_T0_,"axG",@progbits,_ZSt21__unguarded_partitionIN9__gnu_cxx17__normal_iteratorIPlSt6vectorIlSaIlEEEENS0_5__ops15_Iter_less_iterEET_S9_S9_S9_T0_,comdat
	.weak	_ZSt21__unguarded_partitionIN9__gnu_cxx17__normal_iteratorIPlSt6vectorIlSaIlEEEENS0_5__ops15_Iter_less_iterEET_S9_S9_S9_T0_
	.type	_ZSt21__unguarded_partitionIN9__gnu_cxx17__normal_iteratorIPlSt6vectorIlSaIlEEEENS0_5__ops15_Iter_less_iterEET_S9_S9_S9_T0_, @function
_ZSt21__unguarded_partitionIN9__gnu_cxx17__normal_iteratorIPlSt6vectorIlSaIlEEEENS0_5__ops15_Iter_less_iterEET_S9_S9_S9_T0_:
.LFB3211:
	.cfi_startproc
	endbr64
	pushq	%rbp
	.cfi_def_cfa_offset 16
	.cfi_offset 6, -16
	movq	%rsp, %rbp
	.cfi_def_cfa_register 6
	subq	$32, %rsp
	movq	%rdi, -8(%rbp)
	movq	%rsi, -16(%rbp)
	movq	%rdx, -24(%rbp)
.L401:
	movq	-24(%rbp), %rdx
	movq	-8(%rbp), %rcx
	leaq	-25(%rbp), %rax
	movq	%rcx, %rsi
	movq	%rax, %rdi
	call	_ZNK9__gnu_cxx5__ops15_Iter_less_iterclINS_17__normal_iteratorIPlSt6vectorIlSaIlEEEES8_EEbT_T0_
	testb	%al, %al
	je	.L400
	leaq	-8(%rbp), %rax
	movq	%rax, %rdi
	call	_ZN9__gnu_cxx17__normal_iteratorIPlSt6vectorIlSaIlEEEppEv
	jmp	.L401
.L400:
	leaq	-16(%rbp), %rax
	movq	%rax, %rdi
	call	_ZN9__gnu_cxx17__normal_iteratorIPlSt6vectorIlSaIlEEEmmEv
.L403:
	movq	-16(%rbp), %rdx
	movq	-24(%rbp), %rcx
	leaq	-25(%rbp), %rax
	movq	%rcx, %rsi
	movq	%rax, %rdi
	call	_ZNK9__gnu_cxx5__ops15_Iter_less_iterclINS_17__normal_iteratorIPlSt6vectorIlSaIlEEEES8_EEbT_T0_
	testb	%al, %al
	je	.L402
	leaq	-16(%rbp), %rax
	movq	%rax, %rdi
	call	_ZN9__gnu_cxx17__normal_iteratorIPlSt6vectorIlSaIlEEEmmEv
	jmp	.L403
.L402:
	leaq	-16(%rbp), %rdx
	leaq	-8(%rbp), %rax
	movq	%rdx, %rsi
	movq	%rax, %rdi
	call	_ZN9__gnu_cxxltIPlSt6vectorIlSaIlEEEEbRKNS_17__normal_iteratorIT_T0_EESA_
	xorl	$1, %eax
	testb	%al, %al
	je	.L404
	movq	-8(%rbp), %rax
	jmp	.L406
.L404:
	movq	-16(%rbp), %rdx
	movq	-8(%rbp), %rax
	movq	%rdx, %rsi
	movq	%rax, %rdi
	call	_ZSt9iter_swapIN9__gnu_cxx17__normal_iteratorIPlSt6vectorIlSaIlEEEES6_EvT_T0_
	leaq	-8(%rbp), %rax
	movq	%rax, %rdi
	call	_ZN9__gnu_cxx17__normal_iteratorIPlSt6vectorIlSaIlEEEppEv
	jmp	.L401
.L406:
	leave
	.cfi_def_cfa 7, 8
	ret
	.cfi_endproc
.LFE3211:
	.size	_ZSt21__unguarded_partitionIN9__gnu_cxx17__normal_iteratorIPlSt6vectorIlSaIlEEEENS0_5__ops15_Iter_less_iterEET_S9_S9_S9_T0_, .-_ZSt21__unguarded_partitionIN9__gnu_cxx17__normal_iteratorIPlSt6vectorIlSaIlEEEENS0_5__ops15_Iter_less_iterEET_S9_S9_S9_T0_
	.section	.text._ZN9__gnu_cxxeqIPlSt6vectorIlSaIlEEEEbRKNS_17__normal_iteratorIT_T0_EESA_,"axG",@progbits,_ZN9__gnu_cxxeqIPlSt6vectorIlSaIlEEEEbRKNS_17__normal_iteratorIT_T0_EESA_,comdat
	.weak	_ZN9__gnu_cxxeqIPlSt6vectorIlSaIlEEEEbRKNS_17__normal_iteratorIT_T0_EESA_
	.type	_ZN9__gnu_cxxeqIPlSt6vectorIlSaIlEEEEbRKNS_17__normal_iteratorIT_T0_EESA_, @function
_ZN9__gnu_cxxeqIPlSt6vectorIlSaIlEEEEbRKNS_17__normal_iteratorIT_T0_EESA_:
.LFB3212:
	.cfi_startproc
	endbr64
	pushq	%rbp
	.cfi_def_cfa_offset 16
	.cfi_offset 6, -16
	movq	%rsp, %rbp
	.cfi_def_cfa_register 6
	pushq	%rbx
	subq	$24, %rsp
	.cfi_offset 3, -24
	movq	%rdi, -24(%rbp)
	movq	%rsi, -32(%rbp)
	movq	-24(%rbp), %rax
	movq	%rax, %rdi
	call	_ZNK9__gnu_cxx17__normal_iteratorIPlSt6vectorIlSaIlEEE4baseEv
	movq	(%rax), %rbx
	movq	-32(%rbp), %rax
	movq	%rax, %rdi
	call	_ZNK9__gnu_cxx17__normal_iteratorIPlSt6vectorIlSaIlEEE4baseEv
	movq	(%rax), %rax
	cmpq	%rax, %rbx
	sete	%al
	addq	$24, %rsp
	popq	%rbx
	popq	%rbp
	.cfi_def_cfa 7, 8
	ret
	.cfi_endproc
.LFE3212:
	.size	_ZN9__gnu_cxxeqIPlSt6vectorIlSaIlEEEEbRKNS_17__normal_iteratorIT_T0_EESA_, .-_ZN9__gnu_cxxeqIPlSt6vectorIlSaIlEEEEbRKNS_17__normal_iteratorIT_T0_EESA_
	.section	.text._ZN9__gnu_cxx17__normal_iteratorIPlSt6vectorIlSaIlEEEppEv,"axG",@progbits,_ZN9__gnu_cxx17__normal_iteratorIPlSt6vectorIlSaIlEEEppEv,comdat
	.align 2
	.weak	_ZN9__gnu_cxx17__normal_iteratorIPlSt6vectorIlSaIlEEEppEv
	.type	_ZN9__gnu_cxx17__normal_iteratorIPlSt6vectorIlSaIlEEEppEv, @function
_ZN9__gnu_cxx17__normal_iteratorIPlSt6vectorIlSaIlEEEppEv:
.LFB3213:
	.cfi_startproc
	endbr64
	pushq	%rbp
	.cfi_def_cfa_offset 16
	.cfi_offset 6, -16
	movq	%rsp, %rbp
	.cfi_def_cfa_register 6
	movq	%rdi, -8(%rbp)
	movq	-8(%rbp), %rax
	movq	(%rax), %rax
	leaq	8(%rax), %rdx
	movq	-8(%rbp), %rax
	movq	%rdx, (%rax)
	movq	-8(%rbp), %rax
	popq	%rbp
	.cfi_def_cfa 7, 8
	ret
	.cfi_endproc
.LFE3213:
	.size	_ZN9__gnu_cxx17__normal_iteratorIPlSt6vectorIlSaIlEEEppEv, .-_ZN9__gnu_cxx17__normal_iteratorIPlSt6vectorIlSaIlEEEppEv
	.section	.text._ZSt13move_backwardIN9__gnu_cxx17__normal_iteratorIPlSt6vectorIlSaIlEEEES6_ET0_T_S8_S7_,"axG",@progbits,_ZSt13move_backwardIN9__gnu_cxx17__normal_iteratorIPlSt6vectorIlSaIlEEEES6_ET0_T_S8_S7_,comdat
	.weak	_ZSt13move_backwardIN9__gnu_cxx17__normal_iteratorIPlSt6vectorIlSaIlEEEES6_ET0_T_S8_S7_
	.type	_ZSt13move_backwardIN9__gnu_cxx17__normal_iteratorIPlSt6vectorIlSaIlEEEES6_ET0_T_S8_S7_, @function
_ZSt13move_backwardIN9__gnu_cxx17__normal_iteratorIPlSt6vectorIlSaIlEEEES6_ET0_T_S8_S7_:
.LFB3214:
	.cfi_startproc
	endbr64
	pushq	%rbp
	.cfi_def_cfa_offset 16
	.cfi_offset 6, -16
	movq	%rsp, %rbp
	.cfi_def_cfa_register 6
	pushq	%rbx
	subq	$40, %rsp
	.cfi_offset 3, -24
	movq	%rdi, -24(%rbp)
	movq	%rsi, -32(%rbp)
	movq	%rdx, -40(%rbp)
	movq	-32(%rbp), %rax
	movq	%rax, %rdi
	call	_ZSt12__miter_baseIN9__gnu_cxx17__normal_iteratorIPlSt6vectorIlSaIlEEEEET_S7_
	movq	%rax, %rbx
	movq	-24(%rbp), %rax
	movq	%rax, %rdi
	call	_ZSt12__miter_baseIN9__gnu_cxx17__normal_iteratorIPlSt6vectorIlSaIlEEEEET_S7_
	movq	%rax, %rcx
	movq	-40(%rbp), %rax
	movq	%rax, %rdx
	movq	%rbx, %rsi
	movq	%rcx, %rdi
	call	_ZSt23__copy_move_backward_a2ILb1EN9__gnu_cxx17__normal_iteratorIPlSt6vectorIlSaIlEEEES6_ET1_T0_S8_S7_
	addq	$40, %rsp
	popq	%rbx
	popq	%rbp
	.cfi_def_cfa 7, 8
	ret
	.cfi_endproc
.LFE3214:
	.size	_ZSt13move_backwardIN9__gnu_cxx17__normal_iteratorIPlSt6vectorIlSaIlEEEES6_ET0_T_S8_S7_, .-_ZSt13move_backwardIN9__gnu_cxx17__normal_iteratorIPlSt6vectorIlSaIlEEEES6_ET0_T_S8_S7_
	.section	.text._ZSt25__unguarded_linear_insertIN9__gnu_cxx17__normal_iteratorIPlSt6vectorIlSaIlEEEENS0_5__ops14_Val_less_iterEEvT_T0_,"axG",@progbits,_ZSt25__unguarded_linear_insertIN9__gnu_cxx17__normal_iteratorIPlSt6vectorIlSaIlEEEENS0_5__ops14_Val_less_iterEEvT_T0_,comdat
	.weak	_ZSt25__unguarded_linear_insertIN9__gnu_cxx17__normal_iteratorIPlSt6vectorIlSaIlEEEENS0_5__ops14_Val_less_iterEEvT_T0_
	.type	_ZSt25__unguarded_linear_insertIN9__gnu_cxx17__normal_iteratorIPlSt6vectorIlSaIlEEEENS0_5__ops14_Val_less_iterEEvT_T0_, @function
_ZSt25__unguarded_linear_insertIN9__gnu_cxx17__normal_iteratorIPlSt6vectorIlSaIlEEEENS0_5__ops14_Val_less_iterEEvT_T0_:
.LFB3215:
	.cfi_startproc
	endbr64
	pushq	%rbp
	.cfi_def_cfa_offset 16
	.cfi_offset 6, -16
	movq	%rsp, %rbp
	.cfi_def_cfa_register 6
	pushq	%rbx
	subq	$56, %rsp
	.cfi_offset 3, -24
	movq	%rdi, -56(%rbp)
	movq	%fs:40, %rax
	movq	%rax, -24(%rbp)
	xorl	%eax, %eax
	leaq	-56(%rbp), %rax
	movq	%rax, %rdi
	call	_ZNK9__gnu_cxx17__normal_iteratorIPlSt6vectorIlSaIlEEEdeEv
	movq	%rax, %rdi
	call	_ZSt4moveIRlEONSt16remove_referenceIT_E4typeEOS2_
	movq	(%rax), %rax
	movq	%rax, -40(%rbp)
	movq	-56(%rbp), %rax
	movq	%rax, -32(%rbp)
	leaq	-32(%rbp), %rax
	movq	%rax, %rdi
	call	_ZN9__gnu_cxx17__normal_iteratorIPlSt6vectorIlSaIlEEEmmEv
.L415:
	movq	-32(%rbp), %rdx
	leaq	-40(%rbp), %rcx
	leaq	-57(%rbp), %rax
	movq	%rcx, %rsi
	movq	%rax, %rdi
	call	_ZNK9__gnu_cxx5__ops14_Val_less_iterclIlNS_17__normal_iteratorIPlSt6vectorIlSaIlEEEEEEbRT_T0_
	testb	%al, %al
	je	.L414
	leaq	-32(%rbp), %rax
	movq	%rax, %rdi
	call	_ZNK9__gnu_cxx17__normal_iteratorIPlSt6vectorIlSaIlEEEdeEv
	movq	%rax, %rdi
	call	_ZSt4moveIRlEONSt16remove_referenceIT_E4typeEOS2_
	movq	%rax, %rbx
	leaq	-56(%rbp), %rax
	movq	%rax, %rdi
	call	_ZNK9__gnu_cxx17__normal_iteratorIPlSt6vectorIlSaIlEEEdeEv
	movq	(%rbx), %rdx
	movq	%rdx, (%rax)
	movq	-32(%rbp), %rax
	movq	%rax, -56(%rbp)
	leaq	-32(%rbp), %rax
	movq	%rax, %rdi
	call	_ZN9__gnu_cxx17__normal_iteratorIPlSt6vectorIlSaIlEEEmmEv
	jmp	.L415
.L414:
	leaq	-40(%rbp), %rax
	movq	%rax, %rdi
	call	_ZSt4moveIRlEONSt16remove_referenceIT_E4typeEOS2_
	movq	%rax, %rbx
	leaq	-56(%rbp), %rax
	movq	%rax, %rdi
	call	_ZNK9__gnu_cxx17__normal_iteratorIPlSt6vectorIlSaIlEEEdeEv
	movq	(%rbx), %rdx
	movq	%rdx, (%rax)
	nop
	movq	-24(%rbp), %rax
	xorq	%fs:40, %rax
	je	.L416
	call	__stack_chk_fail@PLT
.L416:
	addq	$56, %rsp
	popq	%rbx
	popq	%rbp
	.cfi_def_cfa 7, 8
	ret
	.cfi_endproc
.LFE3215:
	.size	_ZSt25__unguarded_linear_insertIN9__gnu_cxx17__normal_iteratorIPlSt6vectorIlSaIlEEEENS0_5__ops14_Val_less_iterEEvT_T0_, .-_ZSt25__unguarded_linear_insertIN9__gnu_cxx17__normal_iteratorIPlSt6vectorIlSaIlEEEENS0_5__ops14_Val_less_iterEEvT_T0_
	.section	.text._ZN9__gnu_cxx13new_allocatorISt10_List_nodeIcEE8allocateEmPKv,"axG",@progbits,_ZN9__gnu_cxx13new_allocatorISt10_List_nodeIcEE8allocateEmPKv,comdat
	.align 2
	.weak	_ZN9__gnu_cxx13new_allocatorISt10_List_nodeIcEE8allocateEmPKv
	.type	_ZN9__gnu_cxx13new_allocatorISt10_List_nodeIcEE8allocateEmPKv, @function
_ZN9__gnu_cxx13new_allocatorISt10_List_nodeIcEE8allocateEmPKv:
.LFB3243:
	.cfi_startproc
	endbr64
	pushq	%rbp
	.cfi_def_cfa_offset 16
	.cfi_offset 6, -16
	movq	%rsp, %rbp
	.cfi_def_cfa_register 6
	subq	$32, %rsp
	movq	%rdi, -8(%rbp)
	movq	%rsi, -16(%rbp)
	movq	%rdx, -24(%rbp)
	movq	-8(%rbp), %rax
	movq	%rax, %rdi
	call	_ZNK9__gnu_cxx13new_allocatorISt10_List_nodeIcEE8max_sizeEv
	cmpq	%rax, -16(%rbp)
	seta	%al
	testb	%al, %al
	je	.L418
	call	_ZSt17__throw_bad_allocv@PLT
.L418:
	movq	-16(%rbp), %rdx
	movq	%rdx, %rax
	addq	%rax, %rax
	addq	%rdx, %rax
	salq	$3, %rax
	movq	%rax, %rdi
	call	_Znwm@PLT
	leave
	.cfi_def_cfa 7, 8
	ret
	.cfi_endproc
.LFE3243:
	.size	_ZN9__gnu_cxx13new_allocatorISt10_List_nodeIcEE8allocateEmPKv, .-_ZN9__gnu_cxx13new_allocatorISt10_List_nodeIcEE8allocateEmPKv
	.section	.text._ZN9__gnu_cxx13new_allocatorISt10_List_nodeIlEE8allocateEmPKv,"axG",@progbits,_ZN9__gnu_cxx13new_allocatorISt10_List_nodeIlEE8allocateEmPKv,comdat
	.align 2
	.weak	_ZN9__gnu_cxx13new_allocatorISt10_List_nodeIlEE8allocateEmPKv
	.type	_ZN9__gnu_cxx13new_allocatorISt10_List_nodeIlEE8allocateEmPKv, @function
_ZN9__gnu_cxx13new_allocatorISt10_List_nodeIlEE8allocateEmPKv:
.LFB3244:
	.cfi_startproc
	endbr64
	pushq	%rbp
	.cfi_def_cfa_offset 16
	.cfi_offset 6, -16
	movq	%rsp, %rbp
	.cfi_def_cfa_register 6
	subq	$32, %rsp
	movq	%rdi, -8(%rbp)
	movq	%rsi, -16(%rbp)
	movq	%rdx, -24(%rbp)
	movq	-8(%rbp), %rax
	movq	%rax, %rdi
	call	_ZNK9__gnu_cxx13new_allocatorISt10_List_nodeIlEE8max_sizeEv
	cmpq	%rax, -16(%rbp)
	seta	%al
	testb	%al, %al
	je	.L421
	call	_ZSt17__throw_bad_allocv@PLT
.L421:
	movq	-16(%rbp), %rdx
	movq	%rdx, %rax
	addq	%rax, %rax
	addq	%rdx, %rax
	salq	$3, %rax
	movq	%rax, %rdi
	call	_Znwm@PLT
	leave
	.cfi_def_cfa 7, 8
	ret
	.cfi_endproc
.LFE3244:
	.size	_ZN9__gnu_cxx13new_allocatorISt10_List_nodeIlEE8allocateEmPKv, .-_ZN9__gnu_cxx13new_allocatorISt10_List_nodeIlEE8allocateEmPKv
	.section	.text._ZNSt16allocator_traitsISaIlEE8max_sizeERKS0_,"axG",@progbits,_ZNSt16allocator_traitsISaIlEE8max_sizeERKS0_,comdat
	.weak	_ZNSt16allocator_traitsISaIlEE8max_sizeERKS0_
	.type	_ZNSt16allocator_traitsISaIlEE8max_sizeERKS0_, @function
_ZNSt16allocator_traitsISaIlEE8max_sizeERKS0_:
.LFB3245:
	.cfi_startproc
	endbr64
	pushq	%rbp
	.cfi_def_cfa_offset 16
	.cfi_offset 6, -16
	movq	%rsp, %rbp
	.cfi_def_cfa_register 6
	subq	$16, %rsp
	movq	%rdi, -8(%rbp)
	movq	-8(%rbp), %rax
	movq	%rax, %rdi
	call	_ZNK9__gnu_cxx13new_allocatorIlE8max_sizeEv
	leave
	.cfi_def_cfa 7, 8
	ret
	.cfi_endproc
.LFE3245:
	.size	_ZNSt16allocator_traitsISaIlEE8max_sizeERKS0_, .-_ZNSt16allocator_traitsISaIlEE8max_sizeERKS0_
	.section	.text._ZSt3minImERKT_S2_S2_,"axG",@progbits,_ZSt3minImERKT_S2_S2_,comdat
	.weak	_ZSt3minImERKT_S2_S2_
	.type	_ZSt3minImERKT_S2_S2_, @function
_ZSt3minImERKT_S2_S2_:
.LFB3246:
	.cfi_startproc
	endbr64
	pushq	%rbp
	.cfi_def_cfa_offset 16
	.cfi_offset 6, -16
	movq	%rsp, %rbp
	.cfi_def_cfa_register 6
	movq	%rdi, -8(%rbp)
	movq	%rsi, -16(%rbp)
	movq	-16(%rbp), %rax
	movq	(%rax), %rdx
	movq	-8(%rbp), %rax
	movq	(%rax), %rax
	cmpq	%rax, %rdx
	jnb	.L426
	movq	-16(%rbp), %rax
	jmp	.L427
.L426:
	movq	-8(%rbp), %rax
.L427:
	popq	%rbp
	.cfi_def_cfa 7, 8
	ret
	.cfi_endproc
.LFE3246:
	.size	_ZSt3minImERKT_S2_S2_, .-_ZSt3minImERKT_S2_S2_
	.section	.text._ZNK9__gnu_cxx13new_allocatorIlE8max_sizeEv,"axG",@progbits,_ZNK9__gnu_cxx13new_allocatorIlE8max_sizeEv,comdat
	.align 2
	.weak	_ZNK9__gnu_cxx13new_allocatorIlE8max_sizeEv
	.type	_ZNK9__gnu_cxx13new_allocatorIlE8max_sizeEv, @function
_ZNK9__gnu_cxx13new_allocatorIlE8max_sizeEv:
.LFB3247:
	.cfi_startproc
	endbr64
	pushq	%rbp
	.cfi_def_cfa_offset 16
	.cfi_offset 6, -16
	movq	%rsp, %rbp
	.cfi_def_cfa_register 6
	movq	%rdi, -8(%rbp)
	movabsq	$1152921504606846975, %rax
	popq	%rbp
	.cfi_def_cfa 7, 8
	ret
	.cfi_endproc
.LFE3247:
	.size	_ZNK9__gnu_cxx13new_allocatorIlE8max_sizeEv, .-_ZNK9__gnu_cxx13new_allocatorIlE8max_sizeEv
	.section	.text._ZSt12__niter_baseIPlET_S1_,"axG",@progbits,_ZSt12__niter_baseIPlET_S1_,comdat
	.weak	_ZSt12__niter_baseIPlET_S1_
	.type	_ZSt12__niter_baseIPlET_S1_, @function
_ZSt12__niter_baseIPlET_S1_:
.LFB3248:
	.cfi_startproc
	endbr64
	pushq	%rbp
	.cfi_def_cfa_offset 16
	.cfi_offset 6, -16
	movq	%rsp, %rbp
	.cfi_def_cfa_register 6
	movq	%rdi, -8(%rbp)
	movq	-8(%rbp), %rax
	popq	%rbp
	.cfi_def_cfa 7, 8
	ret
	.cfi_endproc
.LFE3248:
	.size	_ZSt12__niter_baseIPlET_S1_, .-_ZSt12__niter_baseIPlET_S1_
	.section	.text._ZSt14__relocate_a_1IllENSt9enable_ifIXsrSt24__is_bitwise_relocatableIT_vE5valueEPS2_E4typeES4_S4_S4_RSaIT0_E,"axG",@progbits,_ZSt14__relocate_a_1IllENSt9enable_ifIXsrSt24__is_bitwise_relocatableIT_vE5valueEPS2_E4typeES4_S4_S4_RSaIT0_E,comdat
	.weak	_ZSt14__relocate_a_1IllENSt9enable_ifIXsrSt24__is_bitwise_relocatableIT_vE5valueEPS2_E4typeES4_S4_S4_RSaIT0_E
	.type	_ZSt14__relocate_a_1IllENSt9enable_ifIXsrSt24__is_bitwise_relocatableIT_vE5valueEPS2_E4typeES4_S4_S4_RSaIT0_E, @function
_ZSt14__relocate_a_1IllENSt9enable_ifIXsrSt24__is_bitwise_relocatableIT_vE5valueEPS2_E4typeES4_S4_S4_RSaIT0_E:
.LFB3249:
	.cfi_startproc
	endbr64
	pushq	%rbp
	.cfi_def_cfa_offset 16
	.cfi_offset 6, -16
	movq	%rsp, %rbp
	.cfi_def_cfa_register 6
	subq	$48, %rsp
	movq	%rdi, -24(%rbp)
	movq	%rsi, -32(%rbp)
	movq	%rdx, -40(%rbp)
	movq	%rcx, -48(%rbp)
	movq	-32(%rbp), %rax
	subq	-24(%rbp), %rax
	sarq	$3, %rax
	movq	%rax, -8(%rbp)
	cmpq	$0, -8(%rbp)
	jle	.L433
	movq	-8(%rbp), %rax
	leaq	0(,%rax,8), %rdx
	movq	-24(%rbp), %rcx
	movq	-40(%rbp), %rax
	movq	%rcx, %rsi
	movq	%rax, %rdi
	call	memmove@PLT
.L433:
	movq	-8(%rbp), %rax
	leaq	0(,%rax,8), %rdx
	movq	-40(%rbp), %rax
	addq	%rdx, %rax
	leave
	.cfi_def_cfa 7, 8
	ret
	.cfi_endproc
.LFE3249:
	.size	_ZSt14__relocate_a_1IllENSt9enable_ifIXsrSt24__is_bitwise_relocatableIT_vE5valueEPS2_E4typeES4_S4_S4_RSaIT0_E, .-_ZSt14__relocate_a_1IllENSt9enable_ifIXsrSt24__is_bitwise_relocatableIT_vE5valueEPS2_E4typeES4_S4_S4_RSaIT0_E
	.section	.text._ZNSt20__uninitialized_copyILb1EE13__uninit_copyISt13move_iteratorIPlES3_EET0_T_S6_S5_,"axG",@progbits,_ZNSt20__uninitialized_copyILb1EE13__uninit_copyISt13move_iteratorIPlES3_EET0_T_S6_S5_,comdat
	.weak	_ZNSt20__uninitialized_copyILb1EE13__uninit_copyISt13move_iteratorIPlES3_EET0_T_S6_S5_
	.type	_ZNSt20__uninitialized_copyILb1EE13__uninit_copyISt13move_iteratorIPlES3_EET0_T_S6_S5_, @function
_ZNSt20__uninitialized_copyILb1EE13__uninit_copyISt13move_iteratorIPlES3_EET0_T_S6_S5_:
.LFB3250:
	.cfi_startproc
	endbr64
	pushq	%rbp
	.cfi_def_cfa_offset 16
	.cfi_offset 6, -16
	movq	%rsp, %rbp
	.cfi_def_cfa_register 6
	subq	$32, %rsp
	movq	%rdi, -8(%rbp)
	movq	%rsi, -16(%rbp)
	movq	%rdx, -24(%rbp)
	movq	-24(%rbp), %rdx
	movq	-16(%rbp), %rcx
	movq	-8(%rbp), %rax
	movq	%rcx, %rsi
	movq	%rax, %rdi
	call	_ZSt4copyISt13move_iteratorIPlES1_ET0_T_S4_S3_
	leave
	.cfi_def_cfa 7, 8
	ret
	.cfi_endproc
.LFE3250:
	.size	_ZNSt20__uninitialized_copyILb1EE13__uninit_copyISt13move_iteratorIPlES3_EET0_T_S6_S5_, .-_ZNSt20__uninitialized_copyILb1EE13__uninit_copyISt13move_iteratorIPlES3_EET0_T_S6_S5_
	.section	.text._ZSt11__make_heapIN9__gnu_cxx17__normal_iteratorIPlSt6vectorIlSaIlEEEENS0_5__ops15_Iter_less_iterEEvT_S9_RT0_,"axG",@progbits,_ZSt11__make_heapIN9__gnu_cxx17__normal_iteratorIPlSt6vectorIlSaIlEEEENS0_5__ops15_Iter_less_iterEEvT_S9_RT0_,comdat
	.weak	_ZSt11__make_heapIN9__gnu_cxx17__normal_iteratorIPlSt6vectorIlSaIlEEEENS0_5__ops15_Iter_less_iterEEvT_S9_RT0_
	.type	_ZSt11__make_heapIN9__gnu_cxx17__normal_iteratorIPlSt6vectorIlSaIlEEEENS0_5__ops15_Iter_less_iterEEvT_S9_RT0_, @function
_ZSt11__make_heapIN9__gnu_cxx17__normal_iteratorIPlSt6vectorIlSaIlEEEENS0_5__ops15_Iter_less_iterEEvT_S9_RT0_:
.LFB3251:
	.cfi_startproc
	endbr64
	pushq	%rbp
	.cfi_def_cfa_offset 16
	.cfi_offset 6, -16
	movq	%rsp, %rbp
	.cfi_def_cfa_register 6
	subq	$80, %rsp
	movq	%rdi, -56(%rbp)
	movq	%rsi, -64(%rbp)
	movq	%rdx, -72(%rbp)
	movq	%fs:40, %rax
	movq	%rax, -8(%rbp)
	xorl	%eax, %eax
	leaq	-56(%rbp), %rdx
	leaq	-64(%rbp), %rax
	movq	%rdx, %rsi
	movq	%rax, %rdi
	call	_ZN9__gnu_cxxmiIPlSt6vectorIlSaIlEEEENS_17__normal_iteratorIT_T0_E15difference_typeERKS8_SB_
	cmpq	$1, %rax
	setle	%al
	testb	%al, %al
	jne	.L443
	leaq	-56(%rbp), %rdx
	leaq	-64(%rbp), %rax
	movq	%rdx, %rsi
	movq	%rax, %rdi
	call	_ZN9__gnu_cxxmiIPlSt6vectorIlSaIlEEEENS_17__normal_iteratorIT_T0_E15difference_typeERKS8_SB_
	movq	%rax, -16(%rbp)
	movq	-16(%rbp), %rax
	subq	$2, %rax
	movq	%rax, %rdx
	shrq	$63, %rdx
	addq	%rdx, %rax
	sarq	%rax
	movq	%rax, -24(%rbp)
.L441:
	movq	-24(%rbp), %rdx
	leaq	-56(%rbp), %rax
	movq	%rdx, %rsi
	movq	%rax, %rdi
	call	_ZNK9__gnu_cxx17__normal_iteratorIPlSt6vectorIlSaIlEEEplEl
	movq	%rax, -32(%rbp)
	leaq	-32(%rbp), %rax
	movq	%rax, %rdi
	call	_ZNK9__gnu_cxx17__normal_iteratorIPlSt6vectorIlSaIlEEEdeEv
	movq	%rax, %rdi
	call	_ZSt4moveIRlEONSt16remove_referenceIT_E4typeEOS2_
	movq	(%rax), %rax
	movq	%rax, -40(%rbp)
	leaq	-40(%rbp), %rax
	movq	%rax, %rdi
	call	_ZSt4moveIRlEONSt16remove_referenceIT_E4typeEOS2_
	movq	(%rax), %rcx
	movq	-16(%rbp), %rdx
	movq	-24(%rbp), %rsi
	movq	-56(%rbp), %rax
	movq	%rax, %rdi
	call	_ZSt13__adjust_heapIN9__gnu_cxx17__normal_iteratorIPlSt6vectorIlSaIlEEEEllNS0_5__ops15_Iter_less_iterEEvT_T0_SA_T1_T2_
	cmpq	$0, -24(%rbp)
	je	.L444
	subq	$1, -24(%rbp)
	jmp	.L441
.L443:
	nop
	jmp	.L437
.L444:
	nop
.L437:
	movq	-8(%rbp), %rax
	xorq	%fs:40, %rax
	je	.L442
	call	__stack_chk_fail@PLT
.L442:
	leave
	.cfi_def_cfa 7, 8
	ret
	.cfi_endproc
.LFE3251:
	.size	_ZSt11__make_heapIN9__gnu_cxx17__normal_iteratorIPlSt6vectorIlSaIlEEEENS0_5__ops15_Iter_less_iterEEvT_S9_RT0_, .-_ZSt11__make_heapIN9__gnu_cxx17__normal_iteratorIPlSt6vectorIlSaIlEEEENS0_5__ops15_Iter_less_iterEEvT_S9_RT0_
	.section	.text._ZN9__gnu_cxxltIPlSt6vectorIlSaIlEEEEbRKNS_17__normal_iteratorIT_T0_EESA_,"axG",@progbits,_ZN9__gnu_cxxltIPlSt6vectorIlSaIlEEEEbRKNS_17__normal_iteratorIT_T0_EESA_,comdat
	.weak	_ZN9__gnu_cxxltIPlSt6vectorIlSaIlEEEEbRKNS_17__normal_iteratorIT_T0_EESA_
	.type	_ZN9__gnu_cxxltIPlSt6vectorIlSaIlEEEEbRKNS_17__normal_iteratorIT_T0_EESA_, @function
_ZN9__gnu_cxxltIPlSt6vectorIlSaIlEEEEbRKNS_17__normal_iteratorIT_T0_EESA_:
.LFB3252:
	.cfi_startproc
	endbr64
	pushq	%rbp
	.cfi_def_cfa_offset 16
	.cfi_offset 6, -16
	movq	%rsp, %rbp
	.cfi_def_cfa_register 6
	pushq	%rbx
	subq	$24, %rsp
	.cfi_offset 3, -24
	movq	%rdi, -24(%rbp)
	movq	%rsi, -32(%rbp)
	movq	-24(%rbp), %rax
	movq	%rax, %rdi
	call	_ZNK9__gnu_cxx17__normal_iteratorIPlSt6vectorIlSaIlEEE4baseEv
	movq	(%rax), %rbx
	movq	-32(%rbp), %rax
	movq	%rax, %rdi
	call	_ZNK9__gnu_cxx17__normal_iteratorIPlSt6vectorIlSaIlEEE4baseEv
	movq	(%rax), %rax
	cmpq	%rax, %rbx
	setb	%al
	addq	$24, %rsp
	popq	%rbx
	popq	%rbp
	.cfi_def_cfa 7, 8
	ret
	.cfi_endproc
.LFE3252:
	.size	_ZN9__gnu_cxxltIPlSt6vectorIlSaIlEEEEbRKNS_17__normal_iteratorIT_T0_EESA_, .-_ZN9__gnu_cxxltIPlSt6vectorIlSaIlEEEEbRKNS_17__normal_iteratorIT_T0_EESA_
	.section	.text._ZSt10__pop_heapIN9__gnu_cxx17__normal_iteratorIPlSt6vectorIlSaIlEEEENS0_5__ops15_Iter_less_iterEEvT_S9_S9_RT0_,"axG",@progbits,_ZSt10__pop_heapIN9__gnu_cxx17__normal_iteratorIPlSt6vectorIlSaIlEEEENS0_5__ops15_Iter_less_iterEEvT_S9_S9_RT0_,comdat
	.weak	_ZSt10__pop_heapIN9__gnu_cxx17__normal_iteratorIPlSt6vectorIlSaIlEEEENS0_5__ops15_Iter_less_iterEEvT_S9_S9_RT0_
	.type	_ZSt10__pop_heapIN9__gnu_cxx17__normal_iteratorIPlSt6vectorIlSaIlEEEENS0_5__ops15_Iter_less_iterEEvT_S9_S9_RT0_, @function
_ZSt10__pop_heapIN9__gnu_cxx17__normal_iteratorIPlSt6vectorIlSaIlEEEENS0_5__ops15_Iter_less_iterEEvT_S9_S9_RT0_:
.LFB3253:
	.cfi_startproc
	endbr64
	pushq	%rbp
	.cfi_def_cfa_offset 16
	.cfi_offset 6, -16
	movq	%rsp, %rbp
	.cfi_def_cfa_register 6
	pushq	%rbx
	subq	$56, %rsp
	.cfi_offset 3, -24
	movq	%rdi, -40(%rbp)
	movq	%rsi, -48(%rbp)
	movq	%rdx, -56(%rbp)
	movq	%rcx, -64(%rbp)
	movq	%fs:40, %rax
	movq	%rax, -24(%rbp)
	xorl	%eax, %eax
	leaq	-56(%rbp), %rax
	movq	%rax, %rdi
	call	_ZNK9__gnu_cxx17__normal_iteratorIPlSt6vectorIlSaIlEEEdeEv
	movq	%rax, %rdi
	call	_ZSt4moveIRlEONSt16remove_referenceIT_E4typeEOS2_
	movq	(%rax), %rax
	movq	%rax, -32(%rbp)
	leaq	-40(%rbp), %rax
	movq	%rax, %rdi
	call	_ZNK9__gnu_cxx17__normal_iteratorIPlSt6vectorIlSaIlEEEdeEv
	movq	%rax, %rdi
	call	_ZSt4moveIRlEONSt16remove_referenceIT_E4typeEOS2_
	movq	%rax, %rbx
	leaq	-56(%rbp), %rax
	movq	%rax, %rdi
	call	_ZNK9__gnu_cxx17__normal_iteratorIPlSt6vectorIlSaIlEEEdeEv
	movq	(%rbx), %rdx
	movq	%rdx, (%rax)
	leaq	-32(%rbp), %rax
	movq	%rax, %rdi
	call	_ZSt4moveIRlEONSt16remove_referenceIT_E4typeEOS2_
	movq	(%rax), %rbx
	leaq	-40(%rbp), %rdx
	leaq	-48(%rbp), %rax
	movq	%rdx, %rsi
	movq	%rax, %rdi
	call	_ZN9__gnu_cxxmiIPlSt6vectorIlSaIlEEEENS_17__normal_iteratorIT_T0_E15difference_typeERKS8_SB_
	movq	%rax, %rdx
	movq	-40(%rbp), %rax
	movq	%rbx, %rcx
	movl	$0, %esi
	movq	%rax, %rdi
	call	_ZSt13__adjust_heapIN9__gnu_cxx17__normal_iteratorIPlSt6vectorIlSaIlEEEEllNS0_5__ops15_Iter_less_iterEEvT_T0_SA_T1_T2_
	nop
	movq	-24(%rbp), %rax
	xorq	%fs:40, %rax
	je	.L448
	call	__stack_chk_fail@PLT
.L448:
	addq	$56, %rsp
	popq	%rbx
	popq	%rbp
	.cfi_def_cfa 7, 8
	ret
	.cfi_endproc
.LFE3253:
	.size	_ZSt10__pop_heapIN9__gnu_cxx17__normal_iteratorIPlSt6vectorIlSaIlEEEENS0_5__ops15_Iter_less_iterEEvT_S9_S9_RT0_, .-_ZSt10__pop_heapIN9__gnu_cxx17__normal_iteratorIPlSt6vectorIlSaIlEEEENS0_5__ops15_Iter_less_iterEEvT_S9_S9_RT0_
	.section	.text._ZN9__gnu_cxx17__normal_iteratorIPlSt6vectorIlSaIlEEEmmEv,"axG",@progbits,_ZN9__gnu_cxx17__normal_iteratorIPlSt6vectorIlSaIlEEEmmEv,comdat
	.align 2
	.weak	_ZN9__gnu_cxx17__normal_iteratorIPlSt6vectorIlSaIlEEEmmEv
	.type	_ZN9__gnu_cxx17__normal_iteratorIPlSt6vectorIlSaIlEEEmmEv, @function
_ZN9__gnu_cxx17__normal_iteratorIPlSt6vectorIlSaIlEEEmmEv:
.LFB3254:
	.cfi_startproc
	endbr64
	pushq	%rbp
	.cfi_def_cfa_offset 16
	.cfi_offset 6, -16
	movq	%rsp, %rbp
	.cfi_def_cfa_register 6
	movq	%rdi, -8(%rbp)
	movq	-8(%rbp), %rax
	movq	(%rax), %rax
	leaq	-8(%rax), %rdx
	movq	-8(%rbp), %rax
	movq	%rdx, (%rax)
	movq	-8(%rbp), %rax
	popq	%rbp
	.cfi_def_cfa 7, 8
	ret
	.cfi_endproc
.LFE3254:
	.size	_ZN9__gnu_cxx17__normal_iteratorIPlSt6vectorIlSaIlEEEmmEv, .-_ZN9__gnu_cxx17__normal_iteratorIPlSt6vectorIlSaIlEEEmmEv
	.section	.text._ZSt9iter_swapIN9__gnu_cxx17__normal_iteratorIPlSt6vectorIlSaIlEEEES6_EvT_T0_,"axG",@progbits,_ZSt9iter_swapIN9__gnu_cxx17__normal_iteratorIPlSt6vectorIlSaIlEEEES6_EvT_T0_,comdat
	.weak	_ZSt9iter_swapIN9__gnu_cxx17__normal_iteratorIPlSt6vectorIlSaIlEEEES6_EvT_T0_
	.type	_ZSt9iter_swapIN9__gnu_cxx17__normal_iteratorIPlSt6vectorIlSaIlEEEES6_EvT_T0_, @function
_ZSt9iter_swapIN9__gnu_cxx17__normal_iteratorIPlSt6vectorIlSaIlEEEES6_EvT_T0_:
.LFB3255:
	.cfi_startproc
	endbr64
	pushq	%rbp
	.cfi_def_cfa_offset 16
	.cfi_offset 6, -16
	movq	%rsp, %rbp
	.cfi_def_cfa_register 6
	pushq	%rbx
	subq	$24, %rsp
	.cfi_offset 3, -24
	movq	%rdi, -24(%rbp)
	movq	%rsi, -32(%rbp)
	leaq	-32(%rbp), %rax
	movq	%rax, %rdi
	call	_ZNK9__gnu_cxx17__normal_iteratorIPlSt6vectorIlSaIlEEEdeEv
	movq	%rax, %rbx
	leaq	-24(%rbp), %rax
	movq	%rax, %rdi
	call	_ZNK9__gnu_cxx17__normal_iteratorIPlSt6vectorIlSaIlEEEdeEv
	movq	%rbx, %rsi
	movq	%rax, %rdi
	call	_ZSt4swapIlENSt9enable_ifIXsrSt6__and_IJSt6__not_ISt15__is_tuple_likeIT_EESt21is_move_constructibleIS4_ESt18is_move_assignableIS4_EEE5valueEvE4typeERS4_SE_
	nop
	addq	$24, %rsp
	popq	%rbx
	popq	%rbp
	.cfi_def_cfa 7, 8
	ret
	.cfi_endproc
.LFE3255:
	.size	_ZSt9iter_swapIN9__gnu_cxx17__normal_iteratorIPlSt6vectorIlSaIlEEEES6_EvT_T0_, .-_ZSt9iter_swapIN9__gnu_cxx17__normal_iteratorIPlSt6vectorIlSaIlEEEES6_EvT_T0_
	.section	.text._ZSt12__miter_baseIN9__gnu_cxx17__normal_iteratorIPlSt6vectorIlSaIlEEEEET_S7_,"axG",@progbits,_ZSt12__miter_baseIN9__gnu_cxx17__normal_iteratorIPlSt6vectorIlSaIlEEEEET_S7_,comdat
	.weak	_ZSt12__miter_baseIN9__gnu_cxx17__normal_iteratorIPlSt6vectorIlSaIlEEEEET_S7_
	.type	_ZSt12__miter_baseIN9__gnu_cxx17__normal_iteratorIPlSt6vectorIlSaIlEEEEET_S7_, @function
_ZSt12__miter_baseIN9__gnu_cxx17__normal_iteratorIPlSt6vectorIlSaIlEEEEET_S7_:
.LFB3256:
	.cfi_startproc
	endbr64
	pushq	%rbp
	.cfi_def_cfa_offset 16
	.cfi_offset 6, -16
	movq	%rsp, %rbp
	.cfi_def_cfa_register 6
	movq	%rdi, -8(%rbp)
	movq	-8(%rbp), %rax
	popq	%rbp
	.cfi_def_cfa 7, 8
	ret
	.cfi_endproc
.LFE3256:
	.size	_ZSt12__miter_baseIN9__gnu_cxx17__normal_iteratorIPlSt6vectorIlSaIlEEEEET_S7_, .-_ZSt12__miter_baseIN9__gnu_cxx17__normal_iteratorIPlSt6vectorIlSaIlEEEEET_S7_
	.section	.text._ZSt23__copy_move_backward_a2ILb1EN9__gnu_cxx17__normal_iteratorIPlSt6vectorIlSaIlEEEES6_ET1_T0_S8_S7_,"axG",@progbits,_ZSt23__copy_move_backward_a2ILb1EN9__gnu_cxx17__normal_iteratorIPlSt6vectorIlSaIlEEEES6_ET1_T0_S8_S7_,comdat
	.weak	_ZSt23__copy_move_backward_a2ILb1EN9__gnu_cxx17__normal_iteratorIPlSt6vectorIlSaIlEEEES6_ET1_T0_S8_S7_
	.type	_ZSt23__copy_move_backward_a2ILb1EN9__gnu_cxx17__normal_iteratorIPlSt6vectorIlSaIlEEEES6_ET1_T0_S8_S7_, @function
_ZSt23__copy_move_backward_a2ILb1EN9__gnu_cxx17__normal_iteratorIPlSt6vectorIlSaIlEEEES6_ET1_T0_S8_S7_:
.LFB3257:
	.cfi_startproc
	endbr64
	pushq	%rbp
	.cfi_def_cfa_offset 16
	.cfi_offset 6, -16
	movq	%rsp, %rbp
	.cfi_def_cfa_register 6
	pushq	%r12
	pushq	%rbx
	subq	$32, %rsp
	.cfi_offset 12, -24
	.cfi_offset 3, -32
	movq	%rdi, -24(%rbp)
	movq	%rsi, -32(%rbp)
	movq	%rdx, -40(%rbp)
	movq	-40(%rbp), %rax
	movq	%rax, %rdi
	call	_ZSt12__niter_baseIPlSt6vectorIlSaIlEEET_N9__gnu_cxx17__normal_iteratorIS4_T0_EE
	movq	%rax, %r12
	movq	-32(%rbp), %rax
	movq	%rax, %rdi
	call	_ZSt12__niter_baseIPlSt6vectorIlSaIlEEET_N9__gnu_cxx17__normal_iteratorIS4_T0_EE
	movq	%rax, %rbx
	movq	-24(%rbp), %rax
	movq	%rax, %rdi
	call	_ZSt12__niter_baseIPlSt6vectorIlSaIlEEET_N9__gnu_cxx17__normal_iteratorIS4_T0_EE
	movq	%r12, %rdx
	movq	%rbx, %rsi
	movq	%rax, %rdi
	call	_ZSt22__copy_move_backward_aILb1EPlS0_ET1_T0_S2_S1_
	movq	%rax, %rdx
	movq	-40(%rbp), %rax
	movq	%rdx, %rsi
	movq	%rax, %rdi
	call	_ZSt12__niter_wrapIN9__gnu_cxx17__normal_iteratorIPlSt6vectorIlSaIlEEEES2_ET_S7_T0_
	addq	$32, %rsp
	popq	%rbx
	popq	%r12
	popq	%rbp
	.cfi_def_cfa 7, 8
	ret
	.cfi_endproc
.LFE3257:
	.size	_ZSt23__copy_move_backward_a2ILb1EN9__gnu_cxx17__normal_iteratorIPlSt6vectorIlSaIlEEEES6_ET1_T0_S8_S7_, .-_ZSt23__copy_move_backward_a2ILb1EN9__gnu_cxx17__normal_iteratorIPlSt6vectorIlSaIlEEEES6_ET1_T0_S8_S7_
	.section	.text._ZNK9__gnu_cxx5__ops14_Val_less_iterclIlNS_17__normal_iteratorIPlSt6vectorIlSaIlEEEEEEbRT_T0_,"axG",@progbits,_ZNK9__gnu_cxx5__ops14_Val_less_iterclIlNS_17__normal_iteratorIPlSt6vectorIlSaIlEEEEEEbRT_T0_,comdat
	.align 2
	.weak	_ZNK9__gnu_cxx5__ops14_Val_less_iterclIlNS_17__normal_iteratorIPlSt6vectorIlSaIlEEEEEEbRT_T0_
	.type	_ZNK9__gnu_cxx5__ops14_Val_less_iterclIlNS_17__normal_iteratorIPlSt6vectorIlSaIlEEEEEEbRT_T0_, @function
_ZNK9__gnu_cxx5__ops14_Val_less_iterclIlNS_17__normal_iteratorIPlSt6vectorIlSaIlEEEEEEbRT_T0_:
.LFB3258:
	.cfi_startproc
	endbr64
	pushq	%rbp
	.cfi_def_cfa_offset 16
	.cfi_offset 6, -16
	movq	%rsp, %rbp
	.cfi_def_cfa_register 6
	pushq	%rbx
	subq	$40, %rsp
	.cfi_offset 3, -24
	movq	%rdi, -24(%rbp)
	movq	%rsi, -32(%rbp)
	movq	%rdx, -40(%rbp)
	movq	-32(%rbp), %rax
	movq	(%rax), %rbx
	leaq	-40(%rbp), %rax
	movq	%rax, %rdi
	call	_ZNK9__gnu_cxx17__normal_iteratorIPlSt6vectorIlSaIlEEEdeEv
	movq	(%rax), %rax
	cmpq	%rax, %rbx
	setl	%al
	addq	$40, %rsp
	popq	%rbx
	popq	%rbp
	.cfi_def_cfa 7, 8
	ret
	.cfi_endproc
.LFE3258:
	.size	_ZNK9__gnu_cxx5__ops14_Val_less_iterclIlNS_17__normal_iteratorIPlSt6vectorIlSaIlEEEEEEbRT_T0_, .-_ZNK9__gnu_cxx5__ops14_Val_less_iterclIlNS_17__normal_iteratorIPlSt6vectorIlSaIlEEEEEEbRT_T0_
	.section	.text._ZNK9__gnu_cxx13new_allocatorISt10_List_nodeIcEE8max_sizeEv,"axG",@progbits,_ZNK9__gnu_cxx13new_allocatorISt10_List_nodeIcEE8max_sizeEv,comdat
	.align 2
	.weak	_ZNK9__gnu_cxx13new_allocatorISt10_List_nodeIcEE8max_sizeEv
	.type	_ZNK9__gnu_cxx13new_allocatorISt10_List_nodeIcEE8max_sizeEv, @function
_ZNK9__gnu_cxx13new_allocatorISt10_List_nodeIcEE8max_sizeEv:
.LFB3269:
	.cfi_startproc
	endbr64
	pushq	%rbp
	.cfi_def_cfa_offset 16
	.cfi_offset 6, -16
	movq	%rsp, %rbp
	.cfi_def_cfa_register 6
	movq	%rdi, -8(%rbp)
	movabsq	$384307168202282325, %rax
	popq	%rbp
	.cfi_def_cfa 7, 8
	ret
	.cfi_endproc
.LFE3269:
	.size	_ZNK9__gnu_cxx13new_allocatorISt10_List_nodeIcEE8max_sizeEv, .-_ZNK9__gnu_cxx13new_allocatorISt10_List_nodeIcEE8max_sizeEv
	.section	.text._ZNK9__gnu_cxx13new_allocatorISt10_List_nodeIlEE8max_sizeEv,"axG",@progbits,_ZNK9__gnu_cxx13new_allocatorISt10_List_nodeIlEE8max_sizeEv,comdat
	.align 2
	.weak	_ZNK9__gnu_cxx13new_allocatorISt10_List_nodeIlEE8max_sizeEv
	.type	_ZNK9__gnu_cxx13new_allocatorISt10_List_nodeIlEE8max_sizeEv, @function
_ZNK9__gnu_cxx13new_allocatorISt10_List_nodeIlEE8max_sizeEv:
.LFB3270:
	.cfi_startproc
	endbr64
	pushq	%rbp
	.cfi_def_cfa_offset 16
	.cfi_offset 6, -16
	movq	%rsp, %rbp
	.cfi_def_cfa_register 6
	movq	%rdi, -8(%rbp)
	movabsq	$384307168202282325, %rax
	popq	%rbp
	.cfi_def_cfa 7, 8
	ret
	.cfi_endproc
.LFE3270:
	.size	_ZNK9__gnu_cxx13new_allocatorISt10_List_nodeIlEE8max_sizeEv, .-_ZNK9__gnu_cxx13new_allocatorISt10_List_nodeIlEE8max_sizeEv
	.section	.text._ZSt4copyISt13move_iteratorIPlES1_ET0_T_S4_S3_,"axG",@progbits,_ZSt4copyISt13move_iteratorIPlES1_ET0_T_S4_S3_,comdat
	.weak	_ZSt4copyISt13move_iteratorIPlES1_ET0_T_S4_S3_
	.type	_ZSt4copyISt13move_iteratorIPlES1_ET0_T_S4_S3_, @function
_ZSt4copyISt13move_iteratorIPlES1_ET0_T_S4_S3_:
.LFB3271:
	.cfi_startproc
	endbr64
	pushq	%rbp
	.cfi_def_cfa_offset 16
	.cfi_offset 6, -16
	movq	%rsp, %rbp
	.cfi_def_cfa_register 6
	pushq	%rbx
	subq	$40, %rsp
	.cfi_offset 3, -24
	movq	%rdi, -24(%rbp)
	movq	%rsi, -32(%rbp)
	movq	%rdx, -40(%rbp)
	movq	-32(%rbp), %rax
	movq	%rax, %rdi
	call	_ZSt12__miter_baseIPlEDTcl12__miter_basecldtfp_4baseEEESt13move_iteratorIT_E
	movq	%rax, %rbx
	movq	-24(%rbp), %rax
	movq	%rax, %rdi
	call	_ZSt12__miter_baseIPlEDTcl12__miter_basecldtfp_4baseEEESt13move_iteratorIT_E
	movq	%rax, %rcx
	movq	-40(%rbp), %rax
	movq	%rax, %rdx
	movq	%rbx, %rsi
	movq	%rcx, %rdi
	call	_ZSt14__copy_move_a2ILb1EPlS0_ET1_T0_S2_S1_
	addq	$40, %rsp
	popq	%rbx
	popq	%rbp
	.cfi_def_cfa 7, 8
	ret
	.cfi_endproc
.LFE3271:
	.size	_ZSt4copyISt13move_iteratorIPlES1_ET0_T_S4_S3_, .-_ZSt4copyISt13move_iteratorIPlES1_ET0_T_S4_S3_
	.section	.text._ZSt13__adjust_heapIN9__gnu_cxx17__normal_iteratorIPlSt6vectorIlSaIlEEEEllNS0_5__ops15_Iter_less_iterEEvT_T0_SA_T1_T2_,"axG",@progbits,_ZSt13__adjust_heapIN9__gnu_cxx17__normal_iteratorIPlSt6vectorIlSaIlEEEEllNS0_5__ops15_Iter_less_iterEEvT_T0_SA_T1_T2_,comdat
	.weak	_ZSt13__adjust_heapIN9__gnu_cxx17__normal_iteratorIPlSt6vectorIlSaIlEEEEllNS0_5__ops15_Iter_less_iterEEvT_T0_SA_T1_T2_
	.type	_ZSt13__adjust_heapIN9__gnu_cxx17__normal_iteratorIPlSt6vectorIlSaIlEEEEllNS0_5__ops15_Iter_less_iterEEvT_T0_SA_T1_T2_, @function
_ZSt13__adjust_heapIN9__gnu_cxx17__normal_iteratorIPlSt6vectorIlSaIlEEEEllNS0_5__ops15_Iter_less_iterEEvT_T0_SA_T1_T2_:
.LFB3272:
	.cfi_startproc
	endbr64
	pushq	%rbp
	.cfi_def_cfa_offset 16
	.cfi_offset 6, -16
	movq	%rsp, %rbp
	.cfi_def_cfa_register 6
	pushq	%rbx
	subq	$104, %rsp
	.cfi_offset 3, -24
	movq	%rdi, -72(%rbp)
	movq	%rsi, -80(%rbp)
	movq	%rdx, -88(%rbp)
	movq	%rcx, -96(%rbp)
	movq	%fs:40, %rax
	movq	%rax, -24(%rbp)
	xorl	%eax, %eax
	movq	-80(%rbp), %rax
	movq	%rax, -32(%rbp)
	movq	-80(%rbp), %rax
	movq	%rax, -40(%rbp)
.L467:
	movq	-88(%rbp), %rax
	subq	$1, %rax
	movq	%rax, %rdx
	shrq	$63, %rdx
	addq	%rdx, %rax
	sarq	%rax
	cmpq	%rax, -40(%rbp)
	jge	.L465
	movq	-40(%rbp), %rax
	addq	$1, %rax
	addq	%rax, %rax
	movq	%rax, -40(%rbp)
	movq	-40(%rbp), %rax
	leaq	-1(%rax), %rdx
	leaq	-72(%rbp), %rax
	movq	%rdx, %rsi
	movq	%rax, %rdi
	call	_ZNK9__gnu_cxx17__normal_iteratorIPlSt6vectorIlSaIlEEEplEl
	movq	%rax, %rbx
	movq	-40(%rbp), %rdx
	leaq	-72(%rbp), %rax
	movq	%rdx, %rsi
	movq	%rax, %rdi
	call	_ZNK9__gnu_cxx17__normal_iteratorIPlSt6vectorIlSaIlEEEplEl
	movq	%rax, %rcx
	leaq	-97(%rbp), %rax
	movq	%rbx, %rdx
	movq	%rcx, %rsi
	movq	%rax, %rdi
	call	_ZNK9__gnu_cxx5__ops15_Iter_less_iterclINS_17__normal_iteratorIPlSt6vectorIlSaIlEEEES8_EEbT_T0_
	testb	%al, %al
	je	.L466
	subq	$1, -40(%rbp)
.L466:
	movq	-40(%rbp), %rdx
	leaq	-72(%rbp), %rax
	movq	%rdx, %rsi
	movq	%rax, %rdi
	call	_ZNK9__gnu_cxx17__normal_iteratorIPlSt6vectorIlSaIlEEEplEl
	movq	%rax, -48(%rbp)
	leaq	-48(%rbp), %rax
	movq	%rax, %rdi
	call	_ZNK9__gnu_cxx17__normal_iteratorIPlSt6vectorIlSaIlEEEdeEv
	movq	%rax, %rdi
	call	_ZSt4moveIRlEONSt16remove_referenceIT_E4typeEOS2_
	movq	%rax, %rbx
	movq	-80(%rbp), %rdx
	leaq	-72(%rbp), %rax
	movq	%rdx, %rsi
	movq	%rax, %rdi
	call	_ZNK9__gnu_cxx17__normal_iteratorIPlSt6vectorIlSaIlEEEplEl
	movq	%rax, -56(%rbp)
	leaq	-56(%rbp), %rax
	movq	%rax, %rdi
	call	_ZNK9__gnu_cxx17__normal_iteratorIPlSt6vectorIlSaIlEEEdeEv
	movq	(%rbx), %rdx
	movq	%rdx, (%rax)
	movq	-40(%rbp), %rax
	movq	%rax, -80(%rbp)
	jmp	.L467
.L465:
	movq	-88(%rbp), %rax
	andl	$1, %eax
	testq	%rax, %rax
	jne	.L468
	movq	-88(%rbp), %rax
	subq	$2, %rax
	movq	%rax, %rdx
	shrq	$63, %rdx
	addq	%rdx, %rax
	sarq	%rax
	cmpq	%rax, -40(%rbp)
	jne	.L468
	movq	-40(%rbp), %rax
	addq	$1, %rax
	addq	%rax, %rax
	movq	%rax, -40(%rbp)
	movq	-40(%rbp), %rax
	leaq	-1(%rax), %rdx
	leaq	-72(%rbp), %rax
	movq	%rdx, %rsi
	movq	%rax, %rdi
	call	_ZNK9__gnu_cxx17__normal_iteratorIPlSt6vectorIlSaIlEEEplEl
	movq	%rax, -48(%rbp)
	leaq	-48(%rbp), %rax
	movq	%rax, %rdi
	call	_ZNK9__gnu_cxx17__normal_iteratorIPlSt6vectorIlSaIlEEEdeEv
	movq	%rax, %rdi
	call	_ZSt4moveIRlEONSt16remove_referenceIT_E4typeEOS2_
	movq	%rax, %rbx
	movq	-80(%rbp), %rdx
	leaq	-72(%rbp), %rax
	movq	%rdx, %rsi
	movq	%rax, %rdi
	call	_ZNK9__gnu_cxx17__normal_iteratorIPlSt6vectorIlSaIlEEEplEl
	movq	%rax, -56(%rbp)
	leaq	-56(%rbp), %rax
	movq	%rax, %rdi
	call	_ZNK9__gnu_cxx17__normal_iteratorIPlSt6vectorIlSaIlEEEdeEv
	movq	(%rbx), %rdx
	movq	%rdx, (%rax)
	movq	-40(%rbp), %rax
	subq	$1, %rax
	movq	%rax, -80(%rbp)
.L468:
	leaq	-97(%rbp), %rax
	movq	%rax, %rdi
	call	_ZSt4moveIRN9__gnu_cxx5__ops15_Iter_less_iterEEONSt16remove_referenceIT_E4typeEOS5_
	leaq	-48(%rbp), %rax
	movq	%rax, %rdi
	call	_ZN9__gnu_cxx5__ops14_Iter_less_valC1ENS0_15_Iter_less_iterE
	leaq	-96(%rbp), %rax
	movq	%rax, %rdi
	call	_ZSt4moveIRlEONSt16remove_referenceIT_E4typeEOS2_
	movq	(%rax), %rcx
	leaq	-48(%rbp), %rdi
	movq	-32(%rbp), %rdx
	movq	-80(%rbp), %rsi
	movq	-72(%rbp), %rax
	movq	%rdi, %r8
	movq	%rax, %rdi
	call	_ZSt11__push_heapIN9__gnu_cxx17__normal_iteratorIPlSt6vectorIlSaIlEEEEllNS0_5__ops14_Iter_less_valEEvT_T0_SA_T1_RT2_
	nop
	movq	-24(%rbp), %rax
	xorq	%fs:40, %rax
	je	.L469
	call	__stack_chk_fail@PLT
.L469:
	addq	$104, %rsp
	popq	%rbx
	popq	%rbp
	.cfi_def_cfa 7, 8
	ret
	.cfi_endproc
.LFE3272:
	.size	_ZSt13__adjust_heapIN9__gnu_cxx17__normal_iteratorIPlSt6vectorIlSaIlEEEEllNS0_5__ops15_Iter_less_iterEEvT_T0_SA_T1_T2_, .-_ZSt13__adjust_heapIN9__gnu_cxx17__normal_iteratorIPlSt6vectorIlSaIlEEEEllNS0_5__ops15_Iter_less_iterEEvT_T0_SA_T1_T2_
	.section	.text._ZSt4swapIlENSt9enable_ifIXsrSt6__and_IJSt6__not_ISt15__is_tuple_likeIT_EESt21is_move_constructibleIS4_ESt18is_move_assignableIS4_EEE5valueEvE4typeERS4_SE_,"axG",@progbits,_ZSt4swapIlENSt9enable_ifIXsrSt6__and_IJSt6__not_ISt15__is_tuple_likeIT_EESt21is_move_constructibleIS4_ESt18is_move_assignableIS4_EEE5valueEvE4typeERS4_SE_,comdat
	.weak	_ZSt4swapIlENSt9enable_ifIXsrSt6__and_IJSt6__not_ISt15__is_tuple_likeIT_EESt21is_move_constructibleIS4_ESt18is_move_assignableIS4_EEE5valueEvE4typeERS4_SE_
	.type	_ZSt4swapIlENSt9enable_ifIXsrSt6__and_IJSt6__not_ISt15__is_tuple_likeIT_EESt21is_move_constructibleIS4_ESt18is_move_assignableIS4_EEE5valueEvE4typeERS4_SE_, @function
_ZSt4swapIlENSt9enable_ifIXsrSt6__and_IJSt6__not_ISt15__is_tuple_likeIT_EESt21is_move_constructibleIS4_ESt18is_move_assignableIS4_EEE5valueEvE4typeERS4_SE_:
.LFB3273:
	.cfi_startproc
	endbr64
	pushq	%rbp
	.cfi_def_cfa_offset 16
	.cfi_offset 6, -16
	movq	%rsp, %rbp
	.cfi_def_cfa_register 6
	subq	$32, %rsp
	movq	%rdi, -24(%rbp)
	movq	%rsi, -32(%rbp)
	movq	%fs:40, %rax
	movq	%rax, -8(%rbp)
	xorl	%eax, %eax
	movq	-24(%rbp), %rax
	movq	%rax, %rdi
	call	_ZSt4moveIRlEONSt16remove_referenceIT_E4typeEOS2_
	movq	(%rax), %rax
	movq	%rax, -16(%rbp)
	movq	-32(%rbp), %rax
	movq	%rax, %rdi
	call	_ZSt4moveIRlEONSt16remove_referenceIT_E4typeEOS2_
	movq	(%rax), %rdx
	movq	-24(%rbp), %rax
	movq	%rdx, (%rax)
	leaq	-16(%rbp), %rax
	movq	%rax, %rdi
	call	_ZSt4moveIRlEONSt16remove_referenceIT_E4typeEOS2_
	movq	(%rax), %rdx
	movq	-32(%rbp), %rax
	movq	%rdx, (%rax)
	nop
	movq	-8(%rbp), %rax
	xorq	%fs:40, %rax
	je	.L471
	call	__stack_chk_fail@PLT
.L471:
	leave
	.cfi_def_cfa 7, 8
	ret
	.cfi_endproc
.LFE3273:
	.size	_ZSt4swapIlENSt9enable_ifIXsrSt6__and_IJSt6__not_ISt15__is_tuple_likeIT_EESt21is_move_constructibleIS4_ESt18is_move_assignableIS4_EEE5valueEvE4typeERS4_SE_, .-_ZSt4swapIlENSt9enable_ifIXsrSt6__and_IJSt6__not_ISt15__is_tuple_likeIT_EESt21is_move_constructibleIS4_ESt18is_move_assignableIS4_EEE5valueEvE4typeERS4_SE_
	.section	.text._ZSt12__niter_baseIPlSt6vectorIlSaIlEEET_N9__gnu_cxx17__normal_iteratorIS4_T0_EE,"axG",@progbits,_ZSt12__niter_baseIPlSt6vectorIlSaIlEEET_N9__gnu_cxx17__normal_iteratorIS4_T0_EE,comdat
	.weak	_ZSt12__niter_baseIPlSt6vectorIlSaIlEEET_N9__gnu_cxx17__normal_iteratorIS4_T0_EE
	.type	_ZSt12__niter_baseIPlSt6vectorIlSaIlEEET_N9__gnu_cxx17__normal_iteratorIS4_T0_EE, @function
_ZSt12__niter_baseIPlSt6vectorIlSaIlEEET_N9__gnu_cxx17__normal_iteratorIS4_T0_EE:
.LFB3274:
	.cfi_startproc
	endbr64
	pushq	%rbp
	.cfi_def_cfa_offset 16
	.cfi_offset 6, -16
	movq	%rsp, %rbp
	.cfi_def_cfa_register 6
	subq	$16, %rsp
	movq	%rdi, -8(%rbp)
	leaq	-8(%rbp), %rax
	movq	%rax, %rdi
	call	_ZNK9__gnu_cxx17__normal_iteratorIPlSt6vectorIlSaIlEEE4baseEv
	movq	(%rax), %rax
	leave
	.cfi_def_cfa 7, 8
	ret
	.cfi_endproc
.LFE3274:
	.size	_ZSt12__niter_baseIPlSt6vectorIlSaIlEEET_N9__gnu_cxx17__normal_iteratorIS4_T0_EE, .-_ZSt12__niter_baseIPlSt6vectorIlSaIlEEET_N9__gnu_cxx17__normal_iteratorIS4_T0_EE
	.section	.text._ZSt22__copy_move_backward_aILb1EPlS0_ET1_T0_S2_S1_,"axG",@progbits,_ZSt22__copy_move_backward_aILb1EPlS0_ET1_T0_S2_S1_,comdat
	.weak	_ZSt22__copy_move_backward_aILb1EPlS0_ET1_T0_S2_S1_
	.type	_ZSt22__copy_move_backward_aILb1EPlS0_ET1_T0_S2_S1_, @function
_ZSt22__copy_move_backward_aILb1EPlS0_ET1_T0_S2_S1_:
.LFB3275:
	.cfi_startproc
	endbr64
	pushq	%rbp
	.cfi_def_cfa_offset 16
	.cfi_offset 6, -16
	movq	%rsp, %rbp
	.cfi_def_cfa_register 6
	subq	$48, %rsp
	movq	%rdi, -24(%rbp)
	movq	%rsi, -32(%rbp)
	movq	%rdx, -40(%rbp)
	movb	$1, -1(%rbp)
	movq	-40(%rbp), %rdx
	movq	-32(%rbp), %rcx
	movq	-24(%rbp), %rax
	movq	%rcx, %rsi
	movq	%rax, %rdi
	call	_ZNSt20__copy_move_backwardILb1ELb1ESt26random_access_iterator_tagE13__copy_move_bIlEEPT_PKS3_S6_S4_
	leave
	.cfi_def_cfa 7, 8
	ret
	.cfi_endproc
.LFE3275:
	.size	_ZSt22__copy_move_backward_aILb1EPlS0_ET1_T0_S2_S1_, .-_ZSt22__copy_move_backward_aILb1EPlS0_ET1_T0_S2_S1_
	.section	.text._ZSt12__niter_wrapIN9__gnu_cxx17__normal_iteratorIPlSt6vectorIlSaIlEEEES2_ET_S7_T0_,"axG",@progbits,_ZSt12__niter_wrapIN9__gnu_cxx17__normal_iteratorIPlSt6vectorIlSaIlEEEES2_ET_S7_T0_,comdat
	.weak	_ZSt12__niter_wrapIN9__gnu_cxx17__normal_iteratorIPlSt6vectorIlSaIlEEEES2_ET_S7_T0_
	.type	_ZSt12__niter_wrapIN9__gnu_cxx17__normal_iteratorIPlSt6vectorIlSaIlEEEES2_ET_S7_T0_, @function
_ZSt12__niter_wrapIN9__gnu_cxx17__normal_iteratorIPlSt6vectorIlSaIlEEEES2_ET_S7_T0_:
.LFB3276:
	.cfi_startproc
	endbr64
	pushq	%rbp
	.cfi_def_cfa_offset 16
	.cfi_offset 6, -16
	movq	%rsp, %rbp
	.cfi_def_cfa_register 6
	subq	$16, %rsp
	movq	%rdi, -8(%rbp)
	movq	%rsi, -16(%rbp)
	movq	-8(%rbp), %rax
	movq	%rax, %rdi
	call	_ZSt12__niter_baseIPlSt6vectorIlSaIlEEET_N9__gnu_cxx17__normal_iteratorIS4_T0_EE
	movq	-16(%rbp), %rdx
	subq	%rax, %rdx
	movq	%rdx, %rax
	sarq	$3, %rax
	movq	%rax, %rdx
	leaq	-8(%rbp), %rax
	movq	%rdx, %rsi
	movq	%rax, %rdi
	call	_ZNK9__gnu_cxx17__normal_iteratorIPlSt6vectorIlSaIlEEEplEl
	leave
	.cfi_def_cfa 7, 8
	ret
	.cfi_endproc
.LFE3276:
	.size	_ZSt12__niter_wrapIN9__gnu_cxx17__normal_iteratorIPlSt6vectorIlSaIlEEEES2_ET_S7_T0_, .-_ZSt12__niter_wrapIN9__gnu_cxx17__normal_iteratorIPlSt6vectorIlSaIlEEEES2_ET_S7_T0_
	.section	.text._ZSt12__miter_baseIPlEDTcl12__miter_basecldtfp_4baseEEESt13move_iteratorIT_E,"axG",@progbits,_ZSt12__miter_baseIPlEDTcl12__miter_basecldtfp_4baseEEESt13move_iteratorIT_E,comdat
	.weak	_ZSt12__miter_baseIPlEDTcl12__miter_basecldtfp_4baseEEESt13move_iteratorIT_E
	.type	_ZSt12__miter_baseIPlEDTcl12__miter_basecldtfp_4baseEEESt13move_iteratorIT_E, @function
_ZSt12__miter_baseIPlEDTcl12__miter_basecldtfp_4baseEEESt13move_iteratorIT_E:
.LFB3279:
	.cfi_startproc
	endbr64
	pushq	%rbp
	.cfi_def_cfa_offset 16
	.cfi_offset 6, -16
	movq	%rsp, %rbp
	.cfi_def_cfa_register 6
	subq	$16, %rsp
	movq	%rdi, -8(%rbp)
	leaq	-8(%rbp), %rax
	movq	%rax, %rdi
	call	_ZNKSt13move_iteratorIPlE4baseEv
	movq	%rax, %rdi
	call	_ZSt12__miter_baseIPlET_S1_
	leave
	.cfi_def_cfa 7, 8
	ret
	.cfi_endproc
.LFE3279:
	.size	_ZSt12__miter_baseIPlEDTcl12__miter_basecldtfp_4baseEEESt13move_iteratorIT_E, .-_ZSt12__miter_baseIPlEDTcl12__miter_basecldtfp_4baseEEESt13move_iteratorIT_E
	.section	.text._ZSt14__copy_move_a2ILb1EPlS0_ET1_T0_S2_S1_,"axG",@progbits,_ZSt14__copy_move_a2ILb1EPlS0_ET1_T0_S2_S1_,comdat
	.weak	_ZSt14__copy_move_a2ILb1EPlS0_ET1_T0_S2_S1_
	.type	_ZSt14__copy_move_a2ILb1EPlS0_ET1_T0_S2_S1_, @function
_ZSt14__copy_move_a2ILb1EPlS0_ET1_T0_S2_S1_:
.LFB3280:
	.cfi_startproc
	endbr64
	pushq	%rbp
	.cfi_def_cfa_offset 16
	.cfi_offset 6, -16
	movq	%rsp, %rbp
	.cfi_def_cfa_register 6
	pushq	%r12
	pushq	%rbx
	subq	$32, %rsp
	.cfi_offset 12, -24
	.cfi_offset 3, -32
	movq	%rdi, -24(%rbp)
	movq	%rsi, -32(%rbp)
	movq	%rdx, -40(%rbp)
	movq	-40(%rbp), %rax
	movq	%rax, %rdi
	call	_ZSt12__niter_baseIPlET_S1_
	movq	%rax, %r12
	movq	-32(%rbp), %rax
	movq	%rax, %rdi
	call	_ZSt12__niter_baseIPlET_S1_
	movq	%rax, %rbx
	movq	-24(%rbp), %rax
	movq	%rax, %rdi
	call	_ZSt12__niter_baseIPlET_S1_
	movq	%r12, %rdx
	movq	%rbx, %rsi
	movq	%rax, %rdi
	call	_ZSt13__copy_move_aILb1EPlS0_ET1_T0_S2_S1_
	movq	%rax, %rdx
	leaq	-40(%rbp), %rax
	movq	%rdx, %rsi
	movq	%rax, %rdi
	call	_ZSt12__niter_wrapIPlET_RKS1_S1_
	addq	$32, %rsp
	popq	%rbx
	popq	%r12
	popq	%rbp
	.cfi_def_cfa 7, 8
	ret
	.cfi_endproc
.LFE3280:
	.size	_ZSt14__copy_move_a2ILb1EPlS0_ET1_T0_S2_S1_, .-_ZSt14__copy_move_a2ILb1EPlS0_ET1_T0_S2_S1_
	.section	.text._ZSt4moveIRN9__gnu_cxx5__ops15_Iter_less_iterEEONSt16remove_referenceIT_E4typeEOS5_,"axG",@progbits,_ZSt4moveIRN9__gnu_cxx5__ops15_Iter_less_iterEEONSt16remove_referenceIT_E4typeEOS5_,comdat
	.weak	_ZSt4moveIRN9__gnu_cxx5__ops15_Iter_less_iterEEONSt16remove_referenceIT_E4typeEOS5_
	.type	_ZSt4moveIRN9__gnu_cxx5__ops15_Iter_less_iterEEONSt16remove_referenceIT_E4typeEOS5_, @function
_ZSt4moveIRN9__gnu_cxx5__ops15_Iter_less_iterEEONSt16remove_referenceIT_E4typeEOS5_:
.LFB3281:
	.cfi_startproc
	endbr64
	pushq	%rbp
	.cfi_def_cfa_offset 16
	.cfi_offset 6, -16
	movq	%rsp, %rbp
	.cfi_def_cfa_register 6
	movq	%rdi, -8(%rbp)
	movq	-8(%rbp), %rax
	popq	%rbp
	.cfi_def_cfa 7, 8
	ret
	.cfi_endproc
.LFE3281:
	.size	_ZSt4moveIRN9__gnu_cxx5__ops15_Iter_less_iterEEONSt16remove_referenceIT_E4typeEOS5_, .-_ZSt4moveIRN9__gnu_cxx5__ops15_Iter_less_iterEEONSt16remove_referenceIT_E4typeEOS5_
	.section	.text._ZSt11__push_heapIN9__gnu_cxx17__normal_iteratorIPlSt6vectorIlSaIlEEEEllNS0_5__ops14_Iter_less_valEEvT_T0_SA_T1_RT2_,"axG",@progbits,_ZSt11__push_heapIN9__gnu_cxx17__normal_iteratorIPlSt6vectorIlSaIlEEEEllNS0_5__ops14_Iter_less_valEEvT_T0_SA_T1_RT2_,comdat
	.weak	_ZSt11__push_heapIN9__gnu_cxx17__normal_iteratorIPlSt6vectorIlSaIlEEEEllNS0_5__ops14_Iter_less_valEEvT_T0_SA_T1_RT2_
	.type	_ZSt11__push_heapIN9__gnu_cxx17__normal_iteratorIPlSt6vectorIlSaIlEEEEllNS0_5__ops14_Iter_less_valEEvT_T0_SA_T1_RT2_, @function
_ZSt11__push_heapIN9__gnu_cxx17__normal_iteratorIPlSt6vectorIlSaIlEEEEllNS0_5__ops14_Iter_less_valEEvT_T0_SA_T1_RT2_:
.LFB3282:
	.cfi_startproc
	endbr64
	pushq	%rbp
	.cfi_def_cfa_offset 16
	.cfi_offset 6, -16
	movq	%rsp, %rbp
	.cfi_def_cfa_register 6
	pushq	%rbx
	subq	$88, %rsp
	.cfi_offset 3, -24
	movq	%rdi, -56(%rbp)
	movq	%rsi, -64(%rbp)
	movq	%rdx, -72(%rbp)
	movq	%rcx, -80(%rbp)
	movq	%r8, -88(%rbp)
	movq	%fs:40, %rax
	movq	%rax, -24(%rbp)
	xorl	%eax, %eax
	movq	-64(%rbp), %rax
	subq	$1, %rax
	movq	%rax, %rdx
	shrq	$63, %rdx
	addq	%rdx, %rax
	sarq	%rax
	movq	%rax, -32(%rbp)
.L488:
	movq	-64(%rbp), %rax
	cmpq	-72(%rbp), %rax
	jle	.L485
	movq	-32(%rbp), %rdx
	leaq	-56(%rbp), %rax
	movq	%rdx, %rsi
	movq	%rax, %rdi
	call	_ZNK9__gnu_cxx17__normal_iteratorIPlSt6vectorIlSaIlEEEplEl
	movq	%rax, %rcx
	leaq	-80(%rbp), %rdx
	movq	-88(%rbp), %rax
	movq	%rcx, %rsi
	movq	%rax, %rdi
	call	_ZNK9__gnu_cxx5__ops14_Iter_less_valclINS_17__normal_iteratorIPlSt6vectorIlSaIlEEEElEEbT_RT0_
	testb	%al, %al
	je	.L485
	movl	$1, %eax
	jmp	.L486
.L485:
	movl	$0, %eax
.L486:
	testb	%al, %al
	je	.L487
	movq	-32(%rbp), %rdx
	leaq	-56(%rbp), %rax
	movq	%rdx, %rsi
	movq	%rax, %rdi
	call	_ZNK9__gnu_cxx17__normal_iteratorIPlSt6vectorIlSaIlEEEplEl
	movq	%rax, -40(%rbp)
	leaq	-40(%rbp), %rax
	movq	%rax, %rdi
	call	_ZNK9__gnu_cxx17__normal_iteratorIPlSt6vectorIlSaIlEEEdeEv
	movq	%rax, %rdi
	call	_ZSt4moveIRlEONSt16remove_referenceIT_E4typeEOS2_
	movq	%rax, %rbx
	movq	-64(%rbp), %rdx
	leaq	-56(%rbp), %rax
	movq	%rdx, %rsi
	movq	%rax, %rdi
	call	_ZNK9__gnu_cxx17__normal_iteratorIPlSt6vectorIlSaIlEEEplEl
	movq	%rax, -48(%rbp)
	leaq	-48(%rbp), %rax
	movq	%rax, %rdi
	call	_ZNK9__gnu_cxx17__normal_iteratorIPlSt6vectorIlSaIlEEEdeEv
	movq	(%rbx), %rdx
	movq	%rdx, (%rax)
	movq	-32(%rbp), %rax
	movq	%rax, -64(%rbp)
	movq	-64(%rbp), %rax
	subq	$1, %rax
	movq	%rax, %rdx
	shrq	$63, %rdx
	addq	%rdx, %rax
	sarq	%rax
	movq	%rax, -32(%rbp)
	jmp	.L488
.L487:
	leaq	-80(%rbp), %rax
	movq	%rax, %rdi
	call	_ZSt4moveIRlEONSt16remove_referenceIT_E4typeEOS2_
	movq	%rax, %rbx
	movq	-64(%rbp), %rdx
	leaq	-56(%rbp), %rax
	movq	%rdx, %rsi
	movq	%rax, %rdi
	call	_ZNK9__gnu_cxx17__normal_iteratorIPlSt6vectorIlSaIlEEEplEl
	movq	%rax, -40(%rbp)
	leaq	-40(%rbp), %rax
	movq	%rax, %rdi
	call	_ZNK9__gnu_cxx17__normal_iteratorIPlSt6vectorIlSaIlEEEdeEv
	movq	(%rbx), %rdx
	movq	%rdx, (%rax)
	nop
	movq	-24(%rbp), %rax
	xorq	%fs:40, %rax
	je	.L489
	call	__stack_chk_fail@PLT
.L489:
	addq	$88, %rsp
	popq	%rbx
	popq	%rbp
	.cfi_def_cfa 7, 8
	ret
	.cfi_endproc
.LFE3282:
	.size	_ZSt11__push_heapIN9__gnu_cxx17__normal_iteratorIPlSt6vectorIlSaIlEEEEllNS0_5__ops14_Iter_less_valEEvT_T0_SA_T1_RT2_, .-_ZSt11__push_heapIN9__gnu_cxx17__normal_iteratorIPlSt6vectorIlSaIlEEEEllNS0_5__ops14_Iter_less_valEEvT_T0_SA_T1_RT2_
	.section	.text._ZNSt20__copy_move_backwardILb1ELb1ESt26random_access_iterator_tagE13__copy_move_bIlEEPT_PKS3_S6_S4_,"axG",@progbits,_ZNSt20__copy_move_backwardILb1ELb1ESt26random_access_iterator_tagE13__copy_move_bIlEEPT_PKS3_S6_S4_,comdat
	.weak	_ZNSt20__copy_move_backwardILb1ELb1ESt26random_access_iterator_tagE13__copy_move_bIlEEPT_PKS3_S6_S4_
	.type	_ZNSt20__copy_move_backwardILb1ELb1ESt26random_access_iterator_tagE13__copy_move_bIlEEPT_PKS3_S6_S4_, @function
_ZNSt20__copy_move_backwardILb1ELb1ESt26random_access_iterator_tagE13__copy_move_bIlEEPT_PKS3_S6_S4_:
.LFB3283:
	.cfi_startproc
	endbr64
	pushq	%rbp
	.cfi_def_cfa_offset 16
	.cfi_offset 6, -16
	movq	%rsp, %rbp
	.cfi_def_cfa_register 6
	subq	$48, %rsp
	movq	%rdi, -24(%rbp)
	movq	%rsi, -32(%rbp)
	movq	%rdx, -40(%rbp)
	movq	-32(%rbp), %rax
	subq	-24(%rbp), %rax
	sarq	$3, %rax
	movq	%rax, -8(%rbp)
	cmpq	$0, -8(%rbp)
	je	.L491
	movq	-8(%rbp), %rax
	leaq	0(,%rax,8), %rdx
	movq	-8(%rbp), %rax
	salq	$3, %rax
	negq	%rax
	movq	%rax, %rcx
	movq	-40(%rbp), %rax
	addq	%rax, %rcx
	movq	-24(%rbp), %rax
	movq	%rax, %rsi
	movq	%rcx, %rdi
	call	memmove@PLT
.L491:
	movq	-8(%rbp), %rax
	salq	$3, %rax
	negq	%rax
	movq	%rax, %rdx
	movq	-40(%rbp), %rax
	addq	%rdx, %rax
	leave
	.cfi_def_cfa 7, 8
	ret
	.cfi_endproc
.LFE3283:
	.size	_ZNSt20__copy_move_backwardILb1ELb1ESt26random_access_iterator_tagE13__copy_move_bIlEEPT_PKS3_S6_S4_, .-_ZNSt20__copy_move_backwardILb1ELb1ESt26random_access_iterator_tagE13__copy_move_bIlEEPT_PKS3_S6_S4_
	.section	.text._ZNKSt13move_iteratorIPlE4baseEv,"axG",@progbits,_ZNKSt13move_iteratorIPlE4baseEv,comdat
	.align 2
	.weak	_ZNKSt13move_iteratorIPlE4baseEv
	.type	_ZNKSt13move_iteratorIPlE4baseEv, @function
_ZNKSt13move_iteratorIPlE4baseEv:
.LFB3284:
	.cfi_startproc
	endbr64
	pushq	%rbp
	.cfi_def_cfa_offset 16
	.cfi_offset 6, -16
	movq	%rsp, %rbp
	.cfi_def_cfa_register 6
	movq	%rdi, -8(%rbp)
	movq	-8(%rbp), %rax
	movq	(%rax), %rax
	popq	%rbp
	.cfi_def_cfa 7, 8
	ret
	.cfi_endproc
.LFE3284:
	.size	_ZNKSt13move_iteratorIPlE4baseEv, .-_ZNKSt13move_iteratorIPlE4baseEv
	.section	.text._ZSt12__miter_baseIPlET_S1_,"axG",@progbits,_ZSt12__miter_baseIPlET_S1_,comdat
	.weak	_ZSt12__miter_baseIPlET_S1_
	.type	_ZSt12__miter_baseIPlET_S1_, @function
_ZSt12__miter_baseIPlET_S1_:
.LFB3285:
	.cfi_startproc
	endbr64
	pushq	%rbp
	.cfi_def_cfa_offset 16
	.cfi_offset 6, -16
	movq	%rsp, %rbp
	.cfi_def_cfa_register 6
	movq	%rdi, -8(%rbp)
	movq	-8(%rbp), %rax
	popq	%rbp
	.cfi_def_cfa 7, 8
	ret
	.cfi_endproc
.LFE3285:
	.size	_ZSt12__miter_baseIPlET_S1_, .-_ZSt12__miter_baseIPlET_S1_
	.section	.text._ZSt13__copy_move_aILb1EPlS0_ET1_T0_S2_S1_,"axG",@progbits,_ZSt13__copy_move_aILb1EPlS0_ET1_T0_S2_S1_,comdat
	.weak	_ZSt13__copy_move_aILb1EPlS0_ET1_T0_S2_S1_
	.type	_ZSt13__copy_move_aILb1EPlS0_ET1_T0_S2_S1_, @function
_ZSt13__copy_move_aILb1EPlS0_ET1_T0_S2_S1_:
.LFB3286:
	.cfi_startproc
	endbr64
	pushq	%rbp
	.cfi_def_cfa_offset 16
	.cfi_offset 6, -16
	movq	%rsp, %rbp
	.cfi_def_cfa_register 6
	subq	$48, %rsp
	movq	%rdi, -24(%rbp)
	movq	%rsi, -32(%rbp)
	movq	%rdx, -40(%rbp)
	movb	$1, -1(%rbp)
	movq	-40(%rbp), %rdx
	movq	-32(%rbp), %rcx
	movq	-24(%rbp), %rax
	movq	%rcx, %rsi
	movq	%rax, %rdi
	call	_ZNSt11__copy_moveILb1ELb1ESt26random_access_iterator_tagE8__copy_mIlEEPT_PKS3_S6_S4_
	leave
	.cfi_def_cfa 7, 8
	ret
	.cfi_endproc
.LFE3286:
	.size	_ZSt13__copy_move_aILb1EPlS0_ET1_T0_S2_S1_, .-_ZSt13__copy_move_aILb1EPlS0_ET1_T0_S2_S1_
	.section	.text._ZSt12__niter_wrapIPlET_RKS1_S1_,"axG",@progbits,_ZSt12__niter_wrapIPlET_RKS1_S1_,comdat
	.weak	_ZSt12__niter_wrapIPlET_RKS1_S1_
	.type	_ZSt12__niter_wrapIPlET_RKS1_S1_, @function
_ZSt12__niter_wrapIPlET_RKS1_S1_:
.LFB3287:
	.cfi_startproc
	endbr64
	pushq	%rbp
	.cfi_def_cfa_offset 16
	.cfi_offset 6, -16
	movq	%rsp, %rbp
	.cfi_def_cfa_register 6
	movq	%rdi, -8(%rbp)
	movq	%rsi, -16(%rbp)
	movq	-16(%rbp), %rax
	popq	%rbp
	.cfi_def_cfa 7, 8
	ret
	.cfi_endproc
.LFE3287:
	.size	_ZSt12__niter_wrapIPlET_RKS1_S1_, .-_ZSt12__niter_wrapIPlET_RKS1_S1_
	.section	.text._ZNK9__gnu_cxx5__ops14_Iter_less_valclINS_17__normal_iteratorIPlSt6vectorIlSaIlEEEElEEbT_RT0_,"axG",@progbits,_ZNK9__gnu_cxx5__ops14_Iter_less_valclINS_17__normal_iteratorIPlSt6vectorIlSaIlEEEElEEbT_RT0_,comdat
	.align 2
	.weak	_ZNK9__gnu_cxx5__ops14_Iter_less_valclINS_17__normal_iteratorIPlSt6vectorIlSaIlEEEElEEbT_RT0_
	.type	_ZNK9__gnu_cxx5__ops14_Iter_less_valclINS_17__normal_iteratorIPlSt6vectorIlSaIlEEEElEEbT_RT0_, @function
